[Created by: ./generate-chains.py]

Simple chain containing only a leaf certificate.

Certificate:
    Data:
        Version: 3 (0x2)
        Serial Number: 2 (0x2)
    Signature Algorithm: sha256WithRSAEncryption
        Issuer: CN=Root
        Validity
            Not Before: Jan  1 12:00:00 2015 GMT
            Not After : Jan  1 12:00:00 2016 GMT
        Subject: CN=Target
        Subject Public Key Info:
            Public Key Algorithm: rsaEncryption
                Public-Key: (2048 bit)
                Modulus:
                    00:b5:28:4a:b3:ae:e9:86:3b:2c:5b:c6:91:41:0f:
                    a3:f0:a4:81:90:0f:fa:cd:08:95:58:7a:31:d4:7b:
                    26:4b:29:8d:5f:43:9a:81:35:d9:ea:7f:e7:92:69:
                    e3:b5:7a:8a:cb:cd:c6:38:f5:b8:4d:bc:e3:34:20:
                    21:3c:3b:db:42:55:59:8f:b8:05:51:3b:13:31:5e:
                    0a:94:ff:4b:95:78:c9:cb:71:5f:3a:ea:40:a9:f8:
                    02:1c:06:b6:90:f2:e2:f9:b0:5d:67:d5:d3:67:b6:
                    b8:55:29:c6:6d:ec:69:0b:63:70:e0:19:bf:dc:c2:
                    42:5d:65:b0:9e:ed:bc:56:d3:dd:2d:71:fc:21:9a:
                    88:b9:55:e7:52:ff:21:48:8f:7e:5e:dc:82:66:3d:
                    76:00:86:c6:d9:3c:b9:78:3c:19:21:f7:45:ce:5c:
                    4a:02:f2:65:47:39:94:93:34:fa:d3:25:1d:2f:ec:
                    21:7f:77:22:9d:f3:14:3c:20:9b:a9:50:df:d9:7e:
                    69:0d:b0:f5:f2:38:b2:41:18:ad:1d:f3:34:97:07:
                    c1:e5:0a:a0:11:a3:78:5b:de:e8:f7:da:6b:74:54:
                    a1:0a:23:fd:e6:8d:26:b5:95:f2:98:9b:66:1f:57:
                    0a:73:1d:4c:b0:a4:f2:2a:3c:ff:47:f4:db:27:88:
                    b2:0d
                Exponent: 65537 (0x10001)
        X509v3 extensions:
            X509v3 Subject Key Identifier: 
                D3:2C:DD:E4:49:BC:F3:0B:41:30:BA:CA:FD:9C:FD:F3:32:06:29:3C
            X509v3 Authority Key Identifier: 
                keyid:4E:75:E4:3C:32:DE:9D:EC:79:CD:50:66:BC:A1:1E:6F:3B:F3:0E:8C

            Authority Information Access: 
                CA Issuers - URI:http://url-for-aia/Root.cer

            X509v3 CRL Distribution Points: 

                Full Name:
                  URI:http://url-for-crl/Root.crl

            X509v3 Key Usage: critical
                Digital Signature, Key Encipherment
            X509v3 Extended Key Usage: 
                TLS Web Server Authentication, TLS Web Client Authentication
    Signature Algorithm: sha256WithRSAEncryption
         33:ee:61:a8:70:d5:2d:f9:67:f5:e8:19:28:0d:42:49:55:c4:
         43:c8:37:76:c6:e9:75:2d:5d:d9:bb:80:b5:3e:dc:7c:7f:d6:
         43:8b:7b:0c:25:b4:cd:e6:6b:ef:93:7d:d1:a9:f2:ee:a7:e2:
         9e:51:0a:3a:81:b5:7a:b6:02:41:d9:56:c8:be:26:36:2c:5e:
         d5:de:9b:d8:8a:4a:e2:bd:a6:af:23:80:fe:31:33:6b:75:a0:
         a2:a7:12:2e:cf:01:1b:02:ca:02:f9:50:ac:59:12:e8:2c:74:
         eb:78:8a:d0:14:07:db:11:1d:1c:66:da:b4:ee:93:6d:21:c4:
         a8:72:85:a8:3f:c4:03:26:f3:8c:01:c3:9e:ca:6f:bb:6b:95:
         3d:ca:b7:fd:0e:0b:94:2a:a7:05:1b:61:be:b6:78:03:ab:40:
         d7:b9:86:09:37:9f:8a:4d:74:5d:9a:55:47:17:51:22:20:f1:
         97:34:17:ef:25:ed:57:21:e3:24:a0:17:d8:25:07:6d:58:77:
         3e:e0:a6:cc:85:c0:e6:f2:19:ba:bf:fc:30:eb:72:6c:f5:a0:
         ec:d6:62:ba:6e:e3:e9:dc:47:e7:8f:c0:93:3d:c2:2b:f9:46:
         bf:81:5c:b5:34:9b:9e:4e:03:7b:57:a3:29:d2:d5:18:bc:c3:
         b7:5d:99:8d
-----BEGIN CERTIFICATE-----
MIIDdTCCAl2gAwIBAgIBAjANBgkqhkiG9w0BAQsFADAPMQ0wCwYDVQQDDARSb290
MB4XDTE1MDEwMTEyMDAwMFoXDTE2MDEwMTEyMDAwMFowETEPMA0GA1UEAwwGVGFy
Z2V0MIIBIjANBgkqhkiG9w0BAQEFAAOCAQ8AMIIBCgKCAQEAtShKs67phjssW8aR
QQ+j8KSBkA/6zQiVWHox1HsmSymNX0OagTXZ6n/nkmnjtXqKy83GOPW4TbzjNCAh
PDvbQlVZj7gFUTsTMV4KlP9LlXjJy3FfOupAqfgCHAa2kPLi+bBdZ9XTZ7a4VSnG
bexpC2Nw4Bm/3MJCXWWwnu28VtPdLXH8IZqIuVXnUv8hSI9+XtyCZj12AIbG2Ty5
eDwZIfdFzlxKAvJlRzmUkzT60yUdL+whf3cinfMUPCCbqVDf2X5pDbD18jiyQRit
HfM0lwfB5QqgEaN4W97o99prdFShCiP95o0mtZXymJtmH1cKcx1MsKTyKjz/R/Tb
J4iyDQIDAQABo4HZMIHWMB0GA1UdDgQWBBTTLN3kSbzzC0Ewusr9nP3zMgYpPDAf
BgNVHSMEGDAWgBROdeQ8Mt6d7HnNUGa8oR5vO/MOjDA3BggrBgEFBQcBAQQrMCkw
JwYIKwYBBQUHMAKGG2h0dHA6Ly91cmwtZm9yLWFpYS9Sb290LmNlcjAsBgNVHR8E
JTAjMCGgH6AdhhtodHRwOi8vdXJsLWZvci1jcmwvUm9vdC5jcmwwDgYDVR0PAQH/
BAQDAgWgMB0GA1UdJQQWMBQGCCsGAQUFBwMBBggrBgEFBQcDAjANBgkqhkiG9w0B
AQsFAAOCAQEAM+5hqHDVLfln9egZKA1CSVXEQ8g3dsbpdS1d2buAtT7cfH/WQ4t7
DCW0zeZr75N90any7qfinlEKOoG1erYCQdlWyL4mNixe1d6b2IpK4r2mryOA/jEz
a3WgoqcSLs8BGwLKAvlQrFkS6Cx063iK0BQH2xEdHGbatO6TbSHEqHKFqD/EAybz
jAHDnspvu2uVPcq3/Q4LlCqnBRthvrZ4A6tA17mGCTefik10XZpVRxdRIiDxlzQX
7yXtVyHjJKAX2CUHbVh3PuCmzIXA5vIZur/8MOtybPWg7NZium7j6dxH54/Akz3C
K/lGv4FctTSbnk4De1ejKdLVGLzDt12ZjQ==
-----END CERTIFICATE-----
