Has a status of MALFORMED_REQUEST

$ openssl ocsp -resp_text -respin <([OCSP RESPONSE])
Responder Error: malformedrequest (1)
-----BEGIN OCSP RESPONSE-----
MAMKAQE=
-----END OCSP RESPONSE-----

$ openssl x509 -text < [CA CERTIFICATE]
Certificate:
    Data:
        Version: 3 (0x2)
        Serial Number: 0 (0x0)
    Signature Algorithm: sha1WithRSAEncryption
        Issuer: CN=Test CA
        Validity
            Not Before: Mar  4 21:40:02 2016 GMT
            Not After : Mar  2 21:40:02 2026 GMT
        Subject: CN=Test CA
        Subject Public Key Info:
            Public Key Algorithm: rsaEncryption
                Public-Key: (1024 bit)
                Modulus:
                    00:c4:df:08:47:b7:b2:ea:34:d5:53:24:ba:92:40:
                    aa:b7:6c:7d:fe:6c:67:47:3e:fb:3f:2e:8a:c1:d9:
                    b7:3f:d8:ea:23:0a:ab:09:1b:aa:01:77:c2:e5:07:
                    32:7b:25:1a:5c:a0:9c:e3:d6:e6:2f:b7:32:eb:85:
                    28:c1:3a:e7:22:3c:aa:89:83:97:d1:53:ba:b7:76:
                    5d:29:cc:b6:ff:c5:36:bb:07:4b:e6:86:4f:94:19:
                    29:23:a9:94:ee:f9:7e:de:b2:9b:2a:43:4f:34:f2:
                    ef:f1:aa:70:14:5d:73:20:75:26:d6:db:a7:77:5e:
                    76:3e:53:00:59:0b:ba:ae:65
                Exponent: 65537 (0x10001)
    Signature Algorithm: sha1WithRSAEncryption
         98:69:67:63:87:1d:00:44:68:6c:d4:38:f5:37:a4:57:21:fd:
         14:eb:af:67:25:cc:74:5e:4b:82:ff:22:f9:26:2d:7a:72:32:
         35:b3:be:9a:ad:58:c6:2b:b3:8f:67:4d:75:c7:8f:e0:34:c4:
         4b:8f:7d:70:cb:12:ac:7e:0d:ea:41:d9:58:91:59:7c:f4:2c:
         2d:03:e2:b1:82:14:28:46:10:fc:71:25:98:d5:a3:90:72:6e:
         21:33:5d:47:13:9b:79:57:23:5b:85:e4:8e:05:5c:28:39:bf:
         30:39:c8:19:14:44:5f:08:d5:9b:73:1d:9a:dd:66:15:24:21:
         a8:53
-----BEGIN CA CERTIFICATE-----
MIIBmDCCAQGgAwIBAgIBADANBgkqhkiG9w0BAQUFADASMRAwDgYDVQQDEwdUZXN0IENBMB4XDTE
2MDMwNDIxNDAwMloXDTI2MDMwMjIxNDAwMlowEjEQMA4GA1UEAxMHVGVzdCBDQTCBnzANBgkqhk
iG9w0BAQEFAAOBjQAwgYkCgYEAxN8IR7ey6jTVUyS6kkCqt2x9/mxnRz77Py6Kwdm3P9jqIwqrC
RuqAXfC5QcyeyUaXKCc49bmL7cy64UowTrnIjyqiYOX0VO6t3ZdKcy2/8U2uwdL5oZPlBkpI6mU
7vl+3rKbKkNPNPLv8apwFF1zIHUm1tund152PlMAWQu6rmUCAwEAATANBgkqhkiG9w0BAQUFAAO
BgQCYaWdjhx0ARGhs1Dj1N6RXIf0U669nJcx0XkuC/yL5Ji16cjI1s76arVjGK7OPZ011x4/gNM
RLj31wyxKsfg3qQdlYkVl89CwtA+KxghQoRhD8cSWY1aOQcm4hM11HE5t5VyNbheSOBVwoOb8wO
cgZFERfCNWbcx2a3WYVJCGoUw==
-----END CA CERTIFICATE-----

$ openssl x509 -text < [CERTIFICATE]
Certificate:
    Data:
        Version: 3 (0x2)
        Serial Number: 3 (0x3)
    Signature Algorithm: sha1WithRSAEncryption
        Issuer: CN=Test CA
        Validity
            Not Before: Mar  4 21:40:02 2016 GMT
            Not After : Mar  2 21:40:02 2026 GMT
        Subject: CN=Test Cert
        Subject Public Key Info:
            Public Key Algorithm: rsaEncryption
                Public-Key: (1024 bit)
                Modulus:
                    00:b2:9d:4e:ea:6e:49:d8:d2:eb:8d:da:e6:2f:56:
                    3f:7f:51:e2:da:67:e1:93:b8:82:02:6a:0c:9a:4a:
                    fc:21:0d:d1:05:22:27:92:10:b6:2f:e5:cd:d3:96:
                    b2:33:03:3b:8c:97:1e:fc:78:eb:a1:cb:1c:8b:e5:
                    2a:83:7b:5f:98:ac:3e:2d:b0:74:cc:a1:68:52:b2:
                    68:d1:98:a1:e9:c5:f5:52:70:fc:20:06:f9:d9:de:
                    2e:5d:8d:2f:e2:2c:a9:6f:a1:39:c7:f2:a3:c4:d9:
                    00:be:07:61:a0:a1:4f:07:14:46:95:83:98:c8:d4:
                    d0:02:a3:98:21:ef:96:40:6b
                Exponent: 65537 (0x10001)
    Signature Algorithm: sha1WithRSAEncryption
         74:8b:e7:6c:1c:34:cb:c6:6d:c6:d2:23:77:d9:77:d7:24:73:
         1d:8a:82:8a:f4:fc:56:4e:72:35:85:68:8f:3b:ec:4f:68:93:
         b4:c6:93:5b:b0:cb:94:2c:4d:c4:59:74:4b:82:b2:5d:cf:87:
         d9:29:65:89:22:07:a2:48:1a:b1:33:be:61:39:36:6b:fc:56:
         66:2d:10:05:f8:17:52:57:e9:63:c4:4e:54:51:f7:97:c0:e0:
         3e:16:98:73:5b:d9:bc:41:cb:c6:cf:f7:02:e9:71:e7:76:57:
         8d:89:11:e4:b7:e9:56:6c:ff:28:4b:ba:9b:da:2f:1f:4f:71:
         1c:0c
-----BEGIN CERTIFICATE-----
MIIBmjCCAQOgAwIBAgIBAzANBgkqhkiG9w0BAQUFADASMRAwDgYDVQQDEwdUZXN0IENBMB4XDTE
2MDMwNDIxNDAwMloXDTI2MDMwMjIxNDAwMlowFDESMBAGA1UEAxMJVGVzdCBDZXJ0MIGfMA0GCS
qGSIb3DQEBAQUAA4GNADCBiQKBgQCynU7qbknY0uuN2uYvVj9/UeLaZ+GTuIICagyaSvwhDdEFI
ieSELYv5c3TlrIzAzuMlx78eOuhyxyL5SqDe1+YrD4tsHTMoWhSsmjRmKHpxfVScPwgBvnZ3i5d
jS/iLKlvoTnH8qPE2QC+B2GgoU8HFEaVg5jI1NACo5gh75ZAawIDAQABMA0GCSqGSIb3DQEBBQU
AA4GBAHSL52wcNMvGbcbSI3fZd9ckcx2Kgor0/FZOcjWFaI877E9ok7TGk1uwy5QsTcRZdEuCsl
3Ph9kpZYkiB6JIGrEzvmE5Nmv8VmYtEAX4F1JX6WPETlRR95fA4D4WmHNb2bxBy8bP9wLpced2V
42JEeS36VZs/yhLupvaLx9PcRwM
-----END CERTIFICATE-----
