Is a REVOKE response for the cert

$ openssl asn1parse -i < [OCSP RESPONSE]
    0:d=0  hl=4 l= 328 cons: SEQUENCE          
    4:d=1  hl=2 l=   1 prim:  ENUMERATED        :00
    7:d=1  hl=4 l= 321 cons:  cont [ 0 ]        
   11:d=2  hl=4 l= 317 cons:   SEQUENCE          
   15:d=3  hl=2 l=   9 prim:    OBJECT            :Basic OCSP Response
   26:d=3  hl=4 l= 302 prim:    OCTET STRING      
    0:d=0  hl=4 l= 298 cons:      SEQUENCE          
    4:d=1  hl=3 l= 150 cons:       SEQUENCE          
    7:d=2  hl=2 l=  33 cons:        cont [ 1 ]        
    9:d=3  hl=2 l=  31 cons:         SEQUENCE          
   11:d=4  hl=2 l=  29 cons:          SET               
   13:d=5  hl=2 l=  27 cons:           SEQUENCE          
   15:d=6  hl=2 l=   3 prim:            OBJECT            :commonName
   20:d=6  hl=2 l=  20 prim:            UTF8STRING        :Test Intermediate CA
   42:d=2  hl=2 l=  15 prim:        GENERALIZEDTIME   :20170302000000Z
   59:d=2  hl=2 l=  96 cons:        SEQUENCE          
   61:d=3  hl=2 l=  94 cons:         SEQUENCE          
   63:d=4  hl=2 l=  56 cons:          SEQUENCE          
   65:d=5  hl=2 l=   7 cons:           SEQUENCE          
   67:d=6  hl=2 l=   5 prim:            OBJECT            :sha1
   74:d=5  hl=2 l=  20 prim:           OCTET STRING      [HEX DUMP]:449B1C5B31C6E9990966523E49C3F773C024190A
   96:d=5  hl=2 l=  20 prim:           OCTET STRING      [HEX DUMP]:515BAFC4D708F44AFDEED4E327C22F030F0A3426
  118:d=5  hl=2 l=   1 prim:           INTEGER           :04
  121:d=4  hl=2 l=  17 cons:          cont [ 1 ]        
  123:d=5  hl=2 l=  15 prim:           GENERALIZEDTIME   :20170201000000Z
  140:d=4  hl=2 l=  15 prim:          GENERALIZEDTIME   :20170301000000Z
  157:d=1  hl=2 l=  11 cons:       SEQUENCE          
  159:d=2  hl=2 l=   9 prim:        OBJECT            :sha1WithRSAEncryption
  170:d=1  hl=3 l= 129 prim:       BIT STRING        
-----BEGIN OCSP RESPONSE-----
MIIBSAoBAKCCAUEwggE9BgkrBgEFBQcwAQEEggEuMIIBKjCBlqEhMB8xHTAbBgNVBAMMFFRlc3Q
gSW50ZXJtZWRpYXRlIENBGA8yMDE3MDMwMjAwMDAwMFowYDBeMDgwBwYFKw4DAhoEFESbHFsxxu
mZCWZSPknD93PAJBkKBBRRW6/E1wj0Sv3u1OMnwi8DDwo0JgIBBKERGA8yMDE3MDIwMTAwMDAwM
FoYDzIwMTcwMzAxMDAwMDAwWjALBgkqhkiG9w0BAQUDgYEAegthxFmKKT5tPdhC6qOJpWC2U0TE
juZSrbZUTO+3fsIj05osHdZVw4pseyGQmvFBaKmJzlDDaJdW/ArFlIHPzP0FuvAfa6zu4V4qnEs
ltx5P5DOkSGvpqMbV5y0GJDEN+u8R7wFFVWB2U++ITGigJ615WTB9wj0EyvH/yWlgtlA=
-----END OCSP RESPONSE-----

$ openssl x509 -text < [CA CERTIFICATE]
Certificate:
    Data:
        Version: 3 (0x2)
        Serial Number: 1 (0x1)
    Signature Algorithm: sha1WithRSAEncryption
        Issuer: CN = Test CA
        Validity
            Not Before: Jan  1 00:00:00 2017 GMT
            Not After : Jan  1 00:00:00 2018 GMT
        Subject: CN = Test Intermediate CA
        Subject Public Key Info:
            Public Key Algorithm: rsaEncryption
                Public-Key: (1024 bit)
                Modulus:
                    00:a9:51:a7:ea:94:62:87:ec:6d:a0:2b:01:52:f8:
                    55:c6:26:e7:87:0d:68:c1:f7:81:62:82:e1:33:48:
                    d8:ae:52:27:da:fc:d4:6e:de:cd:1f:3d:bc:c4:46:
                    bc:2f:f2:c0:44:af:11:bd:44:f6:4e:c1:01:bd:a0:
                    cf:51:9f:42:53:5b:f5:b2:32:9c:3c:69:0b:c0:a4:
                    b1:17:d5:9d:9e:ac:ff:b4:9c:92:49:b2:1d:2a:36:
                    00:c2:27:49:e9:b3:ab:08:b0:55:a6:25:75:be:c0:
                    01:7f:f2:16:1d:19:29:2b:4c:5d:af:24:61:43:b5:
                    ba:1a:2e:e8:37:a3:d2:e5:f9
                Exponent: 65537 (0x10001)
    Signature Algorithm: sha1WithRSAEncryption
         38:75:5c:4b:61:8e:c7:03:39:32:5b:41:b4:7d:90:04:c7:87:
         63:e7:67:87:8f:2e:7e:1c:56:fb:65:5c:8c:25:41:ab:07:46:
         cf:1a:b5:a5:79:4e:a3:09:86:88:b3:de:4e:dc:e8:dd:c0:65:
         f3:6d:06:2b:67:cd:92:8a:f1:07:cb:32:af:7a:84:c4:c7:32:
         03:52:52:42:76:0b:90:f6:70:28:29:36:30:16:31:14:61:0e:
         e0:c4:65:e9:57:86:11:ba:3e:5e:fa:73:cd:d8:67:9b:62:e1:
         6a:6a:5c:5f:5f:7c:8d:f1:24:8e:92:17:d4:fe:28:a1:dc:d0:
         85:b3
-----BEGIN CA CERTIFICATE-----
MIIBqTCCARKgAwIBAgIBATANBgkqhkiG9w0BAQUFADASMRAwDgYDVQQDDAdUZXN0IENBMCIYDzI
wMTcwMTAxMDAwMDAwWhgPMjAxODAxMDEwMDAwMDBaMB8xHTAbBgNVBAMMFFRlc3QgSW50ZXJtZW
RpYXRlIENBMIGfMA0GCSqGSIb3DQEBAQUAA4GNADCBiQKBgQCpUafqlGKH7G2gKwFS+FXGJueHD
WjB94FiguEzSNiuUifa/NRu3s0fPbzERrwv8sBErxG9RPZOwQG9oM9Rn0JTW/WyMpw8aQvApLEX
1Z2erP+0nJJJsh0qNgDCJ0nps6sIsFWmJXW+wAF/8hYdGSkrTF2vJGFDtboaLug3o9Ll+QIDAQA
BMA0GCSqGSIb3DQEBBQUAA4GBADh1XEthjscDOTJbQbR9kATHh2PnZ4ePLn4cVvtlXIwlQasHRs
8ataV5TqMJhoiz3k7c6N3AZfNtBitnzZKK8QfLMq96hMTHMgNSUkJ2C5D2cCgpNjAWMRRhDuDEZ
elXhhG6Pl76c83YZ5ti4WpqXF9ffI3xJI6SF9T+KKHc0IWz
-----END CA CERTIFICATE-----

$ openssl x509 -text < [CERTIFICATE]
Certificate:
    Data:
        Version: 3 (0x2)
        Serial Number: 4 (0x4)
    Signature Algorithm: sha1WithRSAEncryption
        Issuer: CN = Test Intermediate CA
        Validity
            Not Before: Jan  1 00:00:00 2017 GMT
            Not After : Jan  1 00:00:00 2018 GMT
        Subject: CN = Test Cert
        Subject Public Key Info:
            Public Key Algorithm: rsaEncryption
                Public-Key: (1024 bit)
                Modulus:
                    00:ae:71:bf:c8:b9:19:fd:fc:21:86:a1:cc:ed:ec:
                    fb:70:91:a1:4e:37:d1:2f:84:ff:30:7d:7e:5d:dd:
                    47:5a:77:0f:58:23:c9:c5:2d:32:6b:e4:06:bb:b9:
                    fa:6f:cd:42:60:d8:a0:8d:55:98:71:7e:25:45:01:
                    6a:7f:bf:19:86:f9:a0:ce:54:9d:5d:20:d1:b6:30:
                    eb:f5:c1:52:aa:e2:8b:eb:4f:02:83:03:3c:2d:4b:
                    3f:de:3c:44:51:9c:f0:91:4f:48:17:69:aa:7f:47:
                    77:41:9c:a2:24:05:5b:17:f7:ec:37:4d:07:42:07:
                    cd:af:4b:eb:aa:d7:93:9f:ff
                Exponent: 65537 (0x10001)
    Signature Algorithm: sha1WithRSAEncryption
         7d:8f:ba:ea:1d:c1:7a:a5:a4:b4:8c:98:0a:fd:d1:c2:29:3a:
         66:ee:7e:34:47:b9:42:01:81:9c:2f:32:e2:4f:db:cb:d4:0b:
         4d:9f:aa:ec:31:3c:6b:20:b4:51:24:f9:40:7b:4e:2d:11:a6:
         52:29:60:f1:6d:6e:28:ed:a8:65:d4:f7:4d:bb:b0:7b:4a:7a:
         29:73:f5:98:cd:64:c6:23:e2:c5:26:fd:4e:a6:1f:52:6a:50:
         70:94:3e:c8:09:56:f6:b7:ba:6f:af:62:01:44:10:d4:0e:95:
         14:05:88:ae:6b:db:04:c1:e0:0f:f7:58:90:44:5e:72:6e:34:
         c1:87
-----BEGIN CERTIFICATE-----
MIIBqzCCARSgAwIBAgIBBDANBgkqhkiG9w0BAQUFADAfMR0wGwYDVQQDDBRUZXN0IEludGVybWV
kaWF0ZSBDQTAiGA8yMDE3MDEwMTAwMDAwMFoYDzIwMTgwMTAxMDAwMDAwWjAUMRIwEAYDVQQDDA
lUZXN0IENlcnQwgZ8wDQYJKoZIhvcNAQEBBQADgY0AMIGJAoGBAK5xv8i5Gf38IYahzO3s+3CRo
U430S+E/zB9fl3dR1p3D1gjycUtMmvkBru5+m/NQmDYoI1VmHF+JUUBan+/GYb5oM5UnV0g0bYw
6/XBUqrii+tPAoMDPC1LP948RFGc8JFPSBdpqn9Hd0GcoiQFWxf37DdNB0IHza9L66rXk5//AgM
BAAEwDQYJKoZIhvcNAQEFBQADgYEAfY+66h3BeqWktIyYCv3Rwik6Zu5+NEe5QgGBnC8y4k/by9
QLTZ+q7DE8ayC0UST5QHtOLRGmUilg8W1uKO2oZdT3Tbuwe0p6KXP1mM1kxiPixSb9TqYfUmpQc
JQ+yAlW9re6b69iAUQQ1A6VFAWIrmvbBMHgD/dYkERecm40wYc=
-----END CERTIFICATE-----

$ openssl asn1parse -i < [OCSP REQUEST]
    0:d=0  hl=2 l=  66 cons: SEQUENCE          
    2:d=1  hl=2 l=  64 cons:  SEQUENCE          
    4:d=2  hl=2 l=  62 cons:   SEQUENCE          
    6:d=3  hl=2 l=  60 cons:    SEQUENCE          
    8:d=4  hl=2 l=  58 cons:     SEQUENCE          
   10:d=5  hl=2 l=   9 cons:      SEQUENCE          
   12:d=6  hl=2 l=   5 prim:       OBJECT            :sha1
   19:d=6  hl=2 l=   0 prim:       NULL              
   21:d=5  hl=2 l=  20 prim:      OCTET STRING      [HEX DUMP]:449B1C5B31C6E9990966523E49C3F773C024190A
   43:d=5  hl=2 l=  20 prim:      OCTET STRING      [HEX DUMP]:515BAFC4D708F44AFDEED4E327C22F030F0A3426
   65:d=5  hl=2 l=   1 prim:      INTEGER           :04
-----BEGIN OCSP REQUEST-----
MEIwQDA+MDwwOjAJBgUrDgMCGgUABBREmxxbMcbpmQlmUj5Jw/dzwCQZCgQUUVuvxNcI9Er97tT
jJ8IvAw8KNCYCAQQ=
-----END OCSP REQUEST-----
