[Created by: ./generate_rsa2048_device_cert.py]

Cast certificate chain where device certificate uses a
2048-bit RSA key

Certificate:
    Data:
        Version: 3 (0x2)
        Serial Number: 1 (0x1)
    Signature Algorithm: sha256WithRSAEncryption
        Issuer: CN=Intermediate
        Validity
            Not Before: Jan  1 12:00:00 2015 GMT
            Not After : Jan  1 12:00:00 2018 GMT
        Subject: CN=RSA 2048 Device Cert
        Subject Public Key Info:
            Public Key Algorithm: rsaEncryption
                Public-Key: (2048 bit)
                Modulus:
                    00:f6:7a:6f:33:8a:c9:b3:9d:db:a8:47:0c:2c:cd:
                    ff:27:db:37:7c:3f:8f:cf:6f:e4:f9:1c:77:6f:82:
                    38:38:76:de:bb:2f:c5:df:47:15:3e:3d:f3:ee:d9:
                    38:4e:c1:a6:2f:c4:dd:8e:ce:a9:a4:a6:4b:81:cb:
                    0d:b2:89:cb:6f:a6:2c:83:cb:72:c8:26:b3:0d:d1:
                    b4:a1:66:f3:ca:d3:74:a9:6a:61:14:d7:6d:b0:0a:
                    8f:a7:25:b5:d8:6a:0a:75:a3:e8:be:7e:6a:08:5f:
                    fc:31:46:2a:1d:e0:d3:21:6b:bf:1c:02:e8:b7:0a:
                    6c:11:f1:69:50:32:15:59:04:c6:75:fe:2c:e7:c6:
                    cc:c8:89:7d:f7:16:da:89:16:b0:1f:10:b1:73:d1:
                    00:06:c5:a5:e2:34:88:1f:8a:aa:d0:45:03:6e:82:
                    b5:ad:49:c7:ad:50:42:18:3a:35:35:88:90:68:98:
                    02:bd:cc:d7:14:51:fe:86:bb:86:76:67:f2:8e:1f:
                    f9:3d:e1:e4:a3:dc:bd:b8:b0:6f:b6:14:b8:0b:a8:
                    0d:24:cf:df:33:45:5a:0c:52:18:29:f9:94:4a:a2:
                    14:c5:b8:90:6c:b6:fc:e1:a1:c5:d3:09:c0:f7:be:
                    9b:be:84:e1:82:a9:58:7f:bc:7e:7a:0f:7d:40:e9:
                    70:b5
                Exponent: 65537 (0x10001)
        X509v3 extensions:
            X509v3 Subject Key Identifier: 
                1F:F8:92:E0:17:EB:C1:D9:58:25:A3:29:5B:7D:BF:F7:0E:3D:AE:1C
            X509v3 Authority Key Identifier: 
                keyid:B7:38:59:7A:66:A9:B7:DE:6C:1E:81:28:0F:1F:AE:1E:A5:BF:44:8F

            Authority Information Access: 
                CA Issuers - URI:http://url-for-aia/Intermediate.cer

            X509v3 CRL Distribution Points: 

                Full Name:
                  URI:http://url-for-crl/Intermediate.crl

            X509v3 Key Usage: critical
                Digital Signature, Key Encipherment
            X509v3 Extended Key Usage: 
                TLS Web Client Authentication
    Signature Algorithm: sha256WithRSAEncryption
         46:d2:39:66:0d:df:a1:26:e6:34:d6:b3:52:e0:e3:c9:6c:d2:
         81:9d:38:46:30:c6:8b:ba:69:fb:01:00:5e:2c:e9:be:23:51:
         d8:69:6f:2e:6b:f0:43:62:15:5f:4b:c9:90:c3:0e:48:c4:d7:
         58:cc:9d:57:48:46:33:f6:8e:af:da:0e:d0:4d:aa:3c:a6:ba:
         58:ef:52:0b:8e:3c:eb:14:cf:9c:84:04:dd:27:b8:09:dc:8a:
         85:f8:bf:7f:2a:ed:a9:37:df:db:eb:d8:5f:79:5a:76:4e:3f:
         9f:84:27:91:65:26:a2:a9:7c:e3:ce:b2:5a:36:37:a7:cb:94:
         73:83:dc:64:4d:b1:ec:d2:61:a7:5c:a3:d6:93:8e:dd:da:5f:
         33:c3:19:7b:fb:a9:d3:af:91:8c:3d:36:f4:c0:81:01:83:b0:
         cb:dc:22:fe:39:58:3f:9d:cc:06:2a:a4:bc:fa:26:8f:be:a4:
         34:ad:47:fb:1c:90:ab:20:0c:a6:99:e8:f1:f6:72:1c:eb:10:
         43:02:b7:71:05:e5:4b:89:a8:d7:aa:3c:c6:01:31:0a:30:98:
         27:e5:d1:78:0a:33:43:da:76:28:9b:0c:2e:eb:fa:bf:ec:5d:
         2f:5b:6d:eb:ed:90:d4:c7:2e:63:2f:69:bb:ca:09:bc:65:89:
         15:7e:bb:e8
-----BEGIN CERTIFICATE-----
MIIDkTCCAnmgAwIBAgIBATANBgkqhkiG9w0BAQsFADAXMRUwEwYDVQQDDAxJbnRl
cm1lZGlhdGUwHhcNMTUwMTAxMTIwMDAwWhcNMTgwMTAxMTIwMDAwWjAfMR0wGwYD
VQQDDBRSU0EgMjA0OCBEZXZpY2UgQ2VydDCCASIwDQYJKoZIhvcNAQEBBQADggEP
ADCCAQoCggEBAPZ6bzOKybOd26hHDCzN/yfbN3w/j89v5Pkcd2+CODh23rsvxd9H
FT498+7ZOE7Bpi/E3Y7OqaSmS4HLDbKJy2+mLIPLcsgmsw3RtKFm88rTdKlqYRTX
bbAKj6cltdhqCnWj6L5+aghf/DFGKh3g0yFrvxwC6LcKbBHxaVAyFVkExnX+LOfG
zMiJffcW2okWsB8QsXPRAAbFpeI0iB+KqtBFA26Cta1Jx61QQhg6NTWIkGiYAr3M
1xRR/oa7hnZn8o4f+T3h5KPcvbiwb7YUuAuoDSTP3zNFWgxSGCn5lEqiFMW4kGy2
/OGhxdMJwPe+m76E4YKpWH+8fnoPfUDpcLUCAwEAAaOB3zCB3DAdBgNVHQ4EFgQU
H/iS4BfrwdlYJaMpW32/9w49rhwwHwYDVR0jBBgwFoAUtzhZemapt95sHoEoDx+u
HqW/RI8wPwYIKwYBBQUHAQEEMzAxMC8GCCsGAQUFBzAChiNodHRwOi8vdXJsLWZv
ci1haWEvSW50ZXJtZWRpYXRlLmNlcjA0BgNVHR8ELTArMCmgJ6AlhiNodHRwOi8v
dXJsLWZvci1jcmwvSW50ZXJtZWRpYXRlLmNybDAOBgNVHQ8BAf8EBAMCBaAwEwYD
VR0lBAwwCgYIKwYBBQUHAwIwDQYJKoZIhvcNAQELBQADggEBAEbSOWYN36Em5jTW
s1Lg48ls0oGdOEYwxou6afsBAF4s6b4jUdhpby5r8ENiFV9LyZDDDkjE11jMnVdI
RjP2jq/aDtBNqjymuljvUguOPOsUz5yEBN0nuAncioX4v38q7ak339vr2F95WnZO
P5+EJ5FlJqKpfOPOslo2N6fLlHOD3GRNsezSYadco9aTjt3aXzPDGXv7qdOvkYw9
NvTAgQGDsMvcIv45WD+dzAYqpLz6Jo++pDStR/sckKsgDKaZ6PH2chzrEEMCt3EF
5UuJqNeqPMYBMQowmCfl0XgKM0PadiibDC7r+r/sXS9bbevtkNTHLmMvabvKCbxl
iRV+u+g=
-----END CERTIFICATE-----

Certificate:
    Data:
        Version: 3 (0x2)
        Serial Number: 2 (0x2)
    Signature Algorithm: sha256WithRSAEncryption
        Issuer: CN=Root
        Validity
            Not Before: Jan  1 12:00:00 2015 GMT
            Not After : Jan  1 12:00:00 2018 GMT
        Subject: CN=Intermediate
        Subject Public Key Info:
            Public Key Algorithm: rsaEncryption
                Public-Key: (2048 bit)
                Modulus:
                    00:ac:8b:55:5c:b8:3c:26:2d:d8:fe:22:70:ef:15:
                    38:a8:56:6d:c6:b7:d0:e1:a1:26:81:02:f8:97:f5:
                    73:1b:d5:c6:1a:77:9f:ae:85:30:7c:6e:e0:03:a7:
                    7f:e3:47:98:c2:d5:c3:6b:c2:cc:0d:0f:80:e1:c3:
                    24:41:8f:21:10:cb:fe:ce:04:79:b6:1e:40:83:1a:
                    dd:44:3a:37:fb:42:8b:52:02:c6:6b:b8:47:58:bc:
                    04:fc:8d:e7:fc:70:1f:07:c5:18:db:b2:6b:44:42:
                    90:67:10:7f:83:38:47:4b:fd:94:cb:45:15:40:e5:
                    e8:2a:e1:2b:d0:f5:2e:cc:95:94:10:9c:da:b5:d4:
                    47:5b:49:da:fe:c0:89:6e:7d:91:64:22:f9:fa:b5:
                    f4:ca:77:2e:f2:e6:cb:b3:4f:c6:67:40:f0:b9:ee:
                    5c:ac:ed:cd:a6:73:b4:08:d5:76:7a:ae:91:1a:8a:
                    5e:0e:e7:25:8c:82:7e:ad:d2:82:79:b1:ca:a3:77:
                    1c:8f:71:68:f2:d8:ce:31:4f:db:b8:79:79:ad:2f:
                    d8:1d:9b:4c:c8:04:a9:de:ad:a2:68:f1:46:e4:f9:
                    f7:d1:8a:bd:1f:9a:d9:33:92:d3:c4:a4:a7:67:b2:
                    5d:66:49:2a:15:8b:71:0d:10:1f:70:82:04:4b:70:
                    4f:a5
                Exponent: 65537 (0x10001)
        X509v3 extensions:
            X509v3 Subject Key Identifier: 
                B7:38:59:7A:66:A9:B7:DE:6C:1E:81:28:0F:1F:AE:1E:A5:BF:44:8F
            X509v3 Authority Key Identifier: 
                keyid:94:38:F3:64:93:E5:2C:C9:0D:36:D1:16:21:13:90:2E:3E:E0:FA:94

            Authority Information Access: 
                CA Issuers - URI:http://url-for-aia/Root.cer

            X509v3 CRL Distribution Points: 

                Full Name:
                  URI:http://url-for-crl/Root.crl

            X509v3 Key Usage: critical
                Certificate Sign, CRL Sign
            X509v3 Basic Constraints: critical
                CA:TRUE
    Signature Algorithm: sha256WithRSAEncryption
         4f:3f:7a:d4:5d:59:e5:0e:d7:48:49:6f:40:ea:ce:95:87:76:
         ae:58:fc:59:6b:78:88:33:17:65:79:a9:a1:63:93:6a:1c:5b:
         33:a2:7d:87:50:8b:47:35:3a:47:8e:0e:e9:3d:e8:1c:9c:a6:
         ab:68:e2:62:20:09:e2:b3:16:f7:43:9d:e8:61:e8:1d:c0:ac:
         19:0c:ab:dd:06:5c:8c:ad:55:e3:7f:ba:20:ba:7b:1e:78:c7:
         40:78:1f:66:e0:db:a0:3b:cd:73:90:a5:6b:71:97:ef:16:ef:
         a3:91:fa:0f:06:3e:4b:23:68:81:fc:25:de:fa:99:0b:f9:b9:
         f5:81:15:59:b1:b1:41:42:1c:a5:17:cb:b5:ba:9f:cd:46:fe:
         22:c8:79:a8:95:03:70:e2:54:2c:58:1a:26:a9:6b:25:b4:ed:
         77:62:57:5f:e7:94:98:72:7d:a6:b3:4c:35:4e:54:68:85:34:
         d0:f3:b8:f8:c1:36:94:db:8f:99:2e:fd:ea:68:47:e1:47:4f:
         bb:0c:7b:dc:85:e1:e6:1c:71:00:5d:15:d3:17:b5:33:dc:a3:
         8b:2a:5e:16:e2:a5:f0:66:c3:5d:e0:f1:b4:59:df:1a:04:65:
         77:cb:0c:95:c2:fb:2d:66:12:0a:e6:49:3b:74:76:48:6f:7e:
         99:b9:02:45
-----BEGIN CERTIFICATE-----
MIIDbTCCAlWgAwIBAgIBAjANBgkqhkiG9w0BAQsFADAPMQ0wCwYDVQQDDARSb290
MB4XDTE1MDEwMTEyMDAwMFoXDTE4MDEwMTEyMDAwMFowFzEVMBMGA1UEAwwMSW50
ZXJtZWRpYXRlMIIBIjANBgkqhkiG9w0BAQEFAAOCAQ8AMIIBCgKCAQEArItVXLg8
Ji3Y/iJw7xU4qFZtxrfQ4aEmgQL4l/VzG9XGGnefroUwfG7gA6d/40eYwtXDa8LM
DQ+A4cMkQY8hEMv+zgR5th5AgxrdRDo3+0KLUgLGa7hHWLwE/I3n/HAfB8UY27Jr
REKQZxB/gzhHS/2Uy0UVQOXoKuEr0PUuzJWUEJzatdRHW0na/sCJbn2RZCL5+rX0
yncu8ubLs0/GZ0Dwue5crO3NpnO0CNV2eq6RGopeDucljIJ+rdKCebHKo3ccj3Fo
8tjOMU/buHl5rS/YHZtMyASp3q2iaPFG5Pn30Yq9H5rZM5LTxKSnZ7JdZkkqFYtx
DRAfcIIES3BPpQIDAQABo4HLMIHIMB0GA1UdDgQWBBS3OFl6Zqm33mwegSgPH64e
pb9EjzAfBgNVHSMEGDAWgBSUOPNkk+UsyQ020RYhE5AuPuD6lDA3BggrBgEFBQcB
AQQrMCkwJwYIKwYBBQUHMAKGG2h0dHA6Ly91cmwtZm9yLWFpYS9Sb290LmNlcjAs
BgNVHR8EJTAjMCGgH6AdhhtodHRwOi8vdXJsLWZvci1jcmwvUm9vdC5jcmwwDgYD
VR0PAQH/BAQDAgEGMA8GA1UdEwEB/wQFMAMBAf8wDQYJKoZIhvcNAQELBQADggEB
AE8/etRdWeUO10hJb0DqzpWHdq5Y/FlreIgzF2V5qaFjk2ocWzOifYdQi0c1OkeO
Duk96Bycpqto4mIgCeKzFvdDnehh6B3ArBkMq90GXIytVeN/uiC6ex54x0B4H2bg
26A7zXOQpWtxl+8W76OR+g8GPksjaIH8Jd76mQv5ufWBFVmxsUFCHKUXy7W6n81G
/iLIeaiVA3DiVCxYGiapayW07XdiV1/nlJhyfaazTDVOVGiFNNDzuPjBNpTbj5ku
/epoR+FHT7sMe9yF4eYccQBdFdMXtTPco4sqXhbipfBmw13g8bRZ3xoEZXfLDJXC
+y1mEgrmSTt0dkhvfpm5AkU=
-----END CERTIFICATE-----

Certificate:
    Data:
        Version: 3 (0x2)
        Serial Number: 1 (0x1)
    Signature Algorithm: sha256WithRSAEncryption
        Issuer: CN=Root
        Validity
            Not Before: Jan  1 12:00:00 2015 GMT
            Not After : Jan  1 12:00:00 2018 GMT
        Subject: CN=Root
        Subject Public Key Info:
            Public Key Algorithm: rsaEncryption
                Public-Key: (2048 bit)
                Modulus:
                    00:df:f8:ef:9a:5c:9c:67:d8:0e:b6:38:1d:ee:7c:
                    41:bb:b2:43:e1:3a:f6:6d:61:1c:68:3b:6d:b7:1d:
                    1b:5c:89:52:d7:2c:1a:05:d8:a5:0f:80:cf:ff:c3:
                    e7:32:d1:75:ca:e0:23:4e:99:96:24:ff:d5:d8:50:
                    de:ef:a0:88:bb:e4:2b:a1:da:80:85:68:05:4b:04:
                    b6:29:be:04:8a:b2:fd:5b:c8:4e:6b:9b:ad:81:c0:
                    25:05:7a:eb:16:ae:21:7d:1c:2a:74:7d:a9:7a:88:
                    64:55:d1:0a:79:45:14:28:ba:25:e1:7f:55:df:22:
                    ee:4a:15:f4:03:11:8f:8f:b4:e4:8a:6d:4a:7b:93:
                    9c:82:ef:f3:f6:ef:f9:10:8e:f5:f0:7b:77:01:40:
                    da:bd:c2:16:e0:53:7a:2d:c2:d1:bd:69:1b:2c:0a:
                    51:c8:63:02:f7:dc:94:6c:19:66:ee:d8:1f:be:41:
                    99:b4:4f:18:ca:41:44:43:8c:f1:95:d7:db:2c:df:
                    6c:a4:b7:b4:24:26:2a:93:8b:c5:a9:e6:91:c2:d7:
                    25:3e:af:bb:c0:b2:4e:3d:38:75:30:07:3b:d7:30:
                    5e:b6:91:c1:de:9d:cb:54:ab:00:f6:2a:fb:a4:4a:
                    9e:8c:27:08:66:35:37:a7:3e:82:50:5a:24:18:91:
                    ca:d7
                Exponent: 65537 (0x10001)
        X509v3 extensions:
            X509v3 Subject Key Identifier: 
                94:38:F3:64:93:E5:2C:C9:0D:36:D1:16:21:13:90:2E:3E:E0:FA:94
            X509v3 Authority Key Identifier: 
                keyid:94:38:F3:64:93:E5:2C:C9:0D:36:D1:16:21:13:90:2E:3E:E0:FA:94

            Authority Information Access: 
                CA Issuers - URI:http://url-for-aia/Root.cer

            X509v3 CRL Distribution Points: 

                Full Name:
                  URI:http://url-for-crl/Root.crl

            X509v3 Key Usage: critical
                Certificate Sign, CRL Sign
            X509v3 Basic Constraints: critical
                CA:TRUE
    Signature Algorithm: sha256WithRSAEncryption
         6b:95:68:f5:58:3c:9d:dc:7d:55:6f:fc:51:58:6b:85:87:c4:
         6a:fd:6d:d3:e3:15:95:61:17:ec:40:67:82:98:a6:d1:36:b3:
         c3:6c:71:9f:8f:b8:7c:ad:e8:bf:ed:87:46:06:e8:86:94:50:
         99:db:86:56:5c:8e:45:9b:88:d5:e3:4d:fe:06:19:b3:55:7d:
         25:a9:a9:cc:b2:99:ad:49:31:0b:89:db:79:65:86:ed:c2:d3:
         a9:44:68:d3:a4:d7:b0:40:14:d7:ba:f9:d3:b1:b7:57:86:e8:
         06:ab:8d:6c:fb:be:05:2e:fc:6a:44:8f:80:bd:2d:3c:25:18:
         2e:dd:28:82:b7:04:a1:d7:dd:99:37:21:c6:0e:8c:74:79:36:
         f9:95:14:6e:11:7f:3e:91:6e:88:79:9b:f5:8a:e7:32:d3:24:
         f5:64:60:e2:49:df:14:f0:5b:5a:47:0f:4f:a9:16:89:f2:42:
         04:d2:ab:fa:26:12:9a:4e:fb:c5:5d:49:a5:82:13:e2:71:80:
         ca:97:dc:42:9b:72:50:72:0e:06:51:0b:f4:7f:81:43:d2:31:
         9c:5c:a9:b1:06:90:1e:eb:f7:60:4b:a7:e2:c4:1d:cd:b6:53:
         e8:9e:11:13:d1:b2:19:25:d8:8c:4b:ac:31:63:13:f5:85:b9:
         59:14:92:92
-----BEGIN CERTIFICATE-----
MIIDZTCCAk2gAwIBAgIBATANBgkqhkiG9w0BAQsFADAPMQ0wCwYDVQQDDARSb290
MB4XDTE1MDEwMTEyMDAwMFoXDTE4MDEwMTEyMDAwMFowDzENMAsGA1UEAwwEUm9v
dDCCASIwDQYJKoZIhvcNAQEBBQADggEPADCCAQoCggEBAN/475pcnGfYDrY4He58
QbuyQ+E69m1hHGg7bbcdG1yJUtcsGgXYpQ+Az//D5zLRdcrgI06ZliT/1dhQ3u+g
iLvkK6HagIVoBUsEtim+BIqy/VvITmubrYHAJQV66xauIX0cKnR9qXqIZFXRCnlF
FCi6JeF/Vd8i7koV9AMRj4+05IptSnuTnILv8/bv+RCO9fB7dwFA2r3CFuBTei3C
0b1pGywKUchjAvfclGwZZu7YH75BmbRPGMpBREOM8ZXX2yzfbKS3tCQmKpOLxanm
kcLXJT6vu8CyTj04dTAHO9cwXraRwd6dy1SrAPYq+6RKnownCGY1N6c+glBaJBiR
ytcCAwEAAaOByzCByDAdBgNVHQ4EFgQUlDjzZJPlLMkNNtEWIROQLj7g+pQwHwYD
VR0jBBgwFoAUlDjzZJPlLMkNNtEWIROQLj7g+pQwNwYIKwYBBQUHAQEEKzApMCcG
CCsGAQUFBzAChhtodHRwOi8vdXJsLWZvci1haWEvUm9vdC5jZXIwLAYDVR0fBCUw
IzAhoB+gHYYbaHR0cDovL3VybC1mb3ItY3JsL1Jvb3QuY3JsMA4GA1UdDwEB/wQE
AwIBBjAPBgNVHRMBAf8EBTADAQH/MA0GCSqGSIb3DQEBCwUAA4IBAQBrlWj1WDyd
3H1Vb/xRWGuFh8Rq/W3T4xWVYRfsQGeCmKbRNrPDbHGfj7h8rei/7YdGBuiGlFCZ
24ZWXI5Fm4jV403+BhmzVX0lqanMspmtSTELidt5ZYbtwtOpRGjTpNewQBTXuvnT
sbdXhugGq41s+74FLvxqRI+AvS08JRgu3SiCtwSh192ZNyHGDox0eTb5lRRuEX8+
kW6IeZv1iucy0yT1ZGDiSd8U8FtaRw9PqRaJ8kIE0qv6JhKaTvvFXUmlghPicYDK
l9xCm3JQcg4GUQv0f4FD0jGcXKmxBpAe6/dgS6fixB3NtlPonhET0bIZJdiMS6wx
YxP1hblZFJKS
-----END CERTIFICATE-----
