===========================================
Certificate0
===========================================
Certificate:
    Data:
        Version: 3 (0x2)
        Serial Number:
            d4:98:34:cf:c6:32:62:da:81:f6:be:dc:e3:a4:eb:7b
    Signature Algorithm: sha256WithRSAEncryption
        Issuer: C=GB, ST=Greater Manchester, L=Salford, O=COMODO CA Limited, CN=COMODO RSA Extended Validation Secure Server CA
        Validity
            Not Before: Dec  1 00:00:00 2015 GMT
            Not After : Feb 25 23:59:59 2018 GMT
        Subject: serialNumber=3830138/1.3.6.1.4.1.311.60.2.1.3=US/1.3.6.1.4.1.311.60.2.1.2=Delaware/businessCategory=Private Organization, C=US/postalCode=07013, ST=NJ, L=Clifton/street=Suite 100/street=1255 Broad St., O=Comodo Group Inc., OU=COMODO EV SSL, OU=COMODO EV SGC SSL, CN=www.comodo.com
        Subject Public Key Info:
            Public Key Algorithm: rsaEncryption
                Public-Key: (2048 bit)
                Modulus:
                    00:b9:4b:64:43:5c:68:dc:87:6b:29:6f:5d:2b:2d:
                    50:80:e1:38:1e:07:f4:e2:34:b1:cf:73:37:8a:30:
                    9c:c8:63:da:8a:50:64:1f:71:80:93:c1:f5:9e:d8:
                    4d:71:05:ea:ff:8b:43:97:21:47:1a:fb:f0:6b:dc:
                    74:ca:da:a9:0d:a1:cf:e7:b8:59:09:27:77:a3:d7:
                    b0:3d:2a:fd:44:62:1b:0d:fb:68:07:a1:b2:84:cb:
                    eb:0c:4c:9c:86:98:55:68:f7:c9:ee:57:d9:a6:88:
                    45:8c:ec:18:b4:63:a6:11:55:80:8e:7b:2e:0a:db:
                    25:30:48:ad:4c:3a:07:35:d1:1c:db:c0:3b:24:f8:
                    fd:a6:bd:3c:ef:3e:2f:10:67:37:78:23:7e:bf:c6:
                    51:45:86:4d:fd:54:a6:3d:e0:fa:2b:24:2c:c5:ff:
                    aa:a2:7e:63:67:22:3c:4c:92:b9:92:28:92:8a:41:
                    a6:6e:f2:f8:1b:b2:1a:a5:8f:7f:93:91:e0:ad:22:
                    37:51:ef:b3:9c:66:e4:4e:30:57:67:2a:ca:7c:24:
                    a0:2a:f5:bc:d7:98:39:30:94:39:94:cf:10:33:81:
                    89:80:be:a0:b0:42:f3:56:b4:9a:e6:d1:27:a2:12:
                    43:6c:a0:ae:45:c5:a7:6b:7f:0e:8e:3b:b0:42:19:
                    78:8d
                Exponent: 65537 (0x10001)
        X509v3 extensions:
            X509v3 Authority Key Identifier: 
                keyid:39:DA:FF:CA:28:14:8A:A8:74:13:08:B9:E4:0E:A9:D2:FA:7E:9D:69

            X509v3 Subject Key Identifier: 
                44:3E:73:30:EB:0B:1B:A7:A7:9D:0F:DA:79:96:4D:1A:87:E9:9D:21
            X509v3 Key Usage: critical
                Digital Signature, Key Encipherment
            X509v3 Basic Constraints: critical
                CA:FALSE
            X509v3 Extended Key Usage: 
                TLS Web Server Authentication, TLS Web Client Authentication, Microsoft Server Gated Crypto, Netscape Server Gated Crypto
            X509v3 Certificate Policies: 
                Policy: 1.3.6.1.4.1.6449.1.2.1.5.1
                  CPS: https://secure.comodo.com/CPS

            X509v3 CRL Distribution Points: 

                Full Name:
                  URI:http://crl.comodoca.com/COMODORSAExtendedValidationSecureServerCA.crl

            Authority Information Access: 
                CA Issuers - URI:http://crt.comodoca.com/COMODORSAExtendedValidationSecureServerCA.crt
                OCSP - URI:http://ocsp.comodoca.com

            X509v3 Subject Alternative Name: 
                DNS:www.comodo.com, DNS:comodo.com
            1.3.6.1.4.1.11129.2.4.2: 
                ...i.g.u.h....d..:...(.L.qQ]g..D.
g..OO.....Q]........F0D. X-
.xA....^f!.j.y.3.....q.u0..NE. A......Fl.:.....u..I..%..x.60 &M.v.V.../.......D.>.Fv....\....U.......Q]..(.....G0E. yh.p8Zc.....~..q.v...cH.. ...*Nt.!......]..T^<.......
..Y_|1........v.......X......gp
<5.......w........Q]........G0E. +.B..q.!B...U.......=.s.B2...;jt.!.......{.e.-7SJ;....!v7...D.+.\..
    Signature Algorithm: sha256WithRSAEncryption
         1d:56:60:2b:0b:48:29:cc:49:83:a9:39:4c:72:08:08:9e:b7:
         bd:9c:9a:3c:93:76:d4:75:58:3c:03:7f:85:e0:d4:71:b6:33:
         3a:a3:f4:17:eb:fe:6a:18:f9:c8:d8:91:85:28:e2:ff:1c:5c:
         39:fe:5b:59:3d:79:f1:d1:d0:a0:cb:42:d4:b7:75:74:8d:e5:
         b6:d5:40:bc:34:e0:5c:e0:29:6e:67:3c:37:45:e9:8e:f6:a9:
         6a:0d:eb:6f:42:18:5b:94:89:8a:8d:2a:9f:55:71:81:e4:ac:
         7f:45:02:05:3c:b0:d0:df:25:81:b6:88:af:71:47:c3:64:8f:
         da:b5:12:f0:f5:22:c4:54:4a:e7:63:18:9f:21:29:e8:89:b3:
         ef:7d:00:76:5d:11:81:4b:e9:ee:6c:d1:71:65:43:2b:88:ba:
         b0:f4:6a:57:a9:b2:eb:c5:ec:c9:a0:5c:42:bd:aa:28:02:d0:
         2b:42:6c:fa:61:3f:d3:ce:74:e3:b5:12:a9:9d:57:8d:b5:24:
         7b:8e:ce:3f:17:65:17:ce:6e:52:d2:14:48:6a:ae:1d:35:a7:
         c6:ba:b2:ec:52:cc:3c:8b:bd:1c:bf:17:1a:8d:ef:56:54:d8:
         08:2b:1b:77:a5:7f:45:67:b1:cb:36:62:1c:31:80:d5:3a:00:
         d1:8d:7a:03
-----BEGIN CERTIFICATE-----
MIIHvzCCBqegAwIBAgIRANSYNM/GMmLagfa+3OOk63swDQYJKoZIhvcNAQELBQAw
gZIxCzAJBgNVBAYTAkdCMRswGQYDVQQIExJHcmVhdGVyIE1hbmNoZXN0ZXIxEDAO
BgNVBAcTB1NhbGZvcmQxGjAYBgNVBAoTEUNPTU9ETyBDQSBMaW1pdGVkMTgwNgYD
VQQDEy9DT01PRE8gUlNBIEV4dGVuZGVkIFZhbGlkYXRpb24gU2VjdXJlIFNlcnZl
ciBDQTAeFw0xNTEyMDEwMDAwMDBaFw0xODAyMjUyMzU5NTlaMIIBMzEQMA4GA1UE
BRMHMzgzMDEzODETMBEGCysGAQQBgjc8AgEDEwJVUzEZMBcGCysGAQQBgjc8AgEC
EwhEZWxhd2FyZTEdMBsGA1UEDxMUUHJpdmF0ZSBPcmdhbml6YXRpb24xCzAJBgNV
BAYTAlVTMQ4wDAYDVQQREwUwNzAxMzELMAkGA1UECBMCTkoxEDAOBgNVBAcTB0Ns
aWZ0b24xEjAQBgNVBAkTCVN1aXRlIDEwMDEXMBUGA1UECRMOMTI1NSBCcm9hZCBT
dC4xGjAYBgNVBAoTEUNvbW9kbyBHcm91cCBJbmMuMRYwFAYDVQQLEw1DT01PRE8g
RVYgU1NMMRowGAYDVQQLExFDT01PRE8gRVYgU0dDIFNTTDEXMBUGA1UEAxMOd3d3
LmNvbW9kby5jb20wggEiMA0GCSqGSIb3DQEBAQUAA4IBDwAwggEKAoIBAQC5S2RD
XGjch2spb10rLVCA4TgeB/TiNLHPczeKMJzIY9qKUGQfcYCTwfWe2E1xBer/i0OX
IUca+/Br3HTK2qkNoc/nuFkJJ3ej17A9Kv1EYhsN+2gHobKEy+sMTJyGmFVo98nu
V9mmiEWM7Bi0Y6YRVYCOey4K2yUwSK1MOgc10RzbwDsk+P2mvTzvPi8QZzd4I36/
xlFFhk39VKY94PorJCzF/6qifmNnIjxMkrmSKJKKQaZu8vgbshqlj3+TkeCtIjdR
77OcZuROMFdnKsp8JKAq9bzXmDkwlDmUzxAzgYmAvqCwQvNWtJrm0SeiEkNsoK5F
xadrfw6OO7BCGXiNAgMBAAGjggNqMIIDZjAfBgNVHSMEGDAWgBQ52v/KKBSKqHQT
CLnkDqnS+n6daTAdBgNVHQ4EFgQURD5zMOsLG6ennQ/aeZZNGofpnSEwDgYDVR0P
AQH/BAQDAgWgMAwGA1UdEwEB/wQCMAAwNAYDVR0lBC0wKwYIKwYBBQUHAwEGCCsG
AQUFBwMCBgorBgEEAYI3CgMDBglghkgBhvhCBAEwRgYDVR0gBD8wPTA7BgwrBgEE
AbIxAQIBBQEwKzApBggrBgEFBQcCARYdaHR0cHM6Ly9zZWN1cmUuY29tb2RvLmNv
bS9DUFMwVgYDVR0fBE8wTTBLoEmgR4ZFaHR0cDovL2NybC5jb21vZG9jYS5jb20v
Q09NT0RPUlNBRXh0ZW5kZWRWYWxpZGF0aW9uU2VjdXJlU2VydmVyQ0EuY3JsMIGH
BggrBgEFBQcBAQR7MHkwUQYIKwYBBQUHMAKGRWh0dHA6Ly9jcnQuY29tb2RvY2Eu
Y29tL0NPTU9ET1JTQUV4dGVuZGVkVmFsaWRhdGlvblNlY3VyZVNlcnZlckNBLmNy
dDAkBggrBgEFBQcwAYYYaHR0cDovL29jc3AuY29tb2RvY2EuY29tMCUGA1UdEQQe
MByCDnd3dy5jb21vZG8uY29tggpjb21vZG8uY29tMIIBfQYKKwYBBAHWeQIEAgSC
AW0EggFpAWcAdQBo9pj4H2SCvjqM7rkoHUz8cVFdZ5PURNEKZ6y7T0/7xAAAAVFd
vZuJAAAEAwBGMEQCIFgtCr54QYrnialeZiHFahZ53zOFitPzHXGvdTD7zE5FAiBB
nIm4gBmHRmwcOpULvvSYddTKSZf9JS7jeLU2MCAmTQB2AFYUBpov18Ls0/XhvUSy
PsdGdrm8mRFcwO+UmFXWidDdAAABUV29mSgAAAQDAEcwRQIgeWjpcDhaY/OmsZcO
ftDFcRt2BssJY0ge4SDzp+8qTnQCIQCOt7vthV2FG1RePMXs8hOcCdEKAcJZX3wx
GaGd4RfHHwB2AKS5CZC0GFgUh7sTosxncAo8NZgE+RvfuON3zQ7IDdwQAAABUV29
m5wAAAQDAEcwRQIgKwZCD9lxvSFCpfnFVYPSneWhjbY9pnOJQjKckQ87anQCIQCG
7hD5EOZ7F2XZLTdTSjvwrgPkIXY376+0RC4r9VzGkTANBgkqhkiG9w0BAQsFAAOC
AQEAHVZgKwtIKcxJg6k5THIICJ63vZyaPJN21HVYPAN/heDUcbYzOqP0F+v+ahj5
yNiRhSji/xxcOf5bWT158dHQoMtC1Ld1dI3lttVAvDTgXOApbmc8N0Xpjvapag3r
b0IYW5SJio0qn1VxgeSsf0UCBTyw0N8lgbaIr3FHw2SP2rUS8PUixFRK52MYnyEp
6Imz730Adl0RgUvp7mzRcWVDK4i6sPRqV6my68XsyaBcQr2qKALQK0Js+mE/0850
47USqZ1XjbUke47OPxdlF85uUtIUSGquHTWnxrqy7FLMPIu9HL8XGo3vVlTYCCsb
d6V/RWexyzZiHDGA1ToA0Y16Aw==
-----END CERTIFICATE-----

===========================================
Certificate1
===========================================
Certificate:
    Data:
        Version: 3 (0x2)
        Serial Number:
            06:a7:43:80:d4:eb:fe:d4:35:b5:a3:f7:e1:6a:bd:d8
    Signature Algorithm: sha384WithRSAEncryption
        Issuer: C=GB, ST=Greater Manchester, L=Salford, O=COMODO CA Limited, CN=COMODO RSA Certification Authority
        Validity
            Not Before: Feb 12 00:00:00 2012 GMT
            Not After : Feb 11 23:59:59 2027 GMT
        Subject: C=GB, ST=Greater Manchester, L=Salford, O=COMODO CA Limited, CN=COMODO RSA Extended Validation Secure Server CA
        Subject Public Key Info:
            Public Key Algorithm: rsaEncryption
                Public-Key: (2048 bit)
                Modulus:
                    00:95:56:de:54:b4:df:d5:02:49:7b:d1:5b:5c:a2:
                    b2:1e:8f:9c:2b:62:4c:2b:8d:12:28:f3:1a:95:a3:
                    c6:10:fd:29:de:e1:9f:0b:38:40:93:d1:ef:6e:95:
                    10:fc:e1:90:17:77:2c:ee:75:3e:7b:63:ec:61:92:
                    6e:4f:3b:ab:80:49:6b:df:00:ea:03:00:7f:2f:75:
                    d5:28:2f:ec:56:67:8f:80:83:a3:bd:dc:03:99:93:
                    8b:94:91:56:5b:a1:b8:6a:3a:3f:06:bd:0e:92:cc:
                    60:9c:fd:b5:e0:9f:66:30:5f:db:e6:94:f0:95:6a:
                    af:c8:8a:af:80:d9:e6:88:39:01:7c:1c:c0:c5:2a:
                    f7:7b:95:a0:f2:76:ab:6d:9b:72:39:30:eb:d1:57:
                    55:01:9d:58:11:9d:7c:6d:84:8f:49:e8:9d:09:fc:
                    3c:fd:0a:4a:76:14:21:5c:16:73:40:23:19:74:c3:
                    ba:58:0a:a6:96:2e:de:36:e5:9f:d0:c2:f0:e1:e0:
                    c1:62:e3:c2:18:45:19:51:aa:17:1e:e8:23:75:d4:
                    c8:d0:96:13:ff:c7:24:d1:8c:0b:27:ae:9e:7a:dc:
                    3a:61:63:60:88:97:2d:5d:05:0b:e5:3b:eb:ae:ce:
                    3a:47:73:76:a8:fa:2c:dd:c0:87:17:e9:ac:30:99:
                    f8:1f
                Exponent: 65537 (0x10001)
        X509v3 extensions:
            X509v3 Authority Key Identifier: 
                keyid:BB:AF:7E:02:3D:FA:A6:F1:3C:84:8E:AD:EE:38:98:EC:D9:32:32:D4

            X509v3 Subject Key Identifier: 
                39:DA:FF:CA:28:14:8A:A8:74:13:08:B9:E4:0E:A9:D2:FA:7E:9D:69
            X509v3 Key Usage: critical
                Certificate Sign, CRL Sign
            X509v3 Basic Constraints: critical
                CA:TRUE, pathlen:0
            X509v3 Certificate Policies: 
                Policy: X509v3 Any Policy
                  CPS: https://secure.comodo.com/CPS

            X509v3 CRL Distribution Points: 

                Full Name:
                  URI:http://crl.comodoca.com/COMODORSACertificationAuthority.crl

            Authority Information Access: 
                CA Issuers - URI:http://crt.comodoca.com/COMODORSAAddTrustCA.crt
                OCSP - URI:http://ocsp.comodoca.com

    Signature Algorithm: sha384WithRSAEncryption
         44:42:9d:41:51:2b:48:88:5d:97:9b:79:5e:11:01:4a:52:19:
         7b:41:2c:c7:89:3c:d0:72:dc:85:fa:58:af:d5:25:e4:13:f8:
         58:65:67:9f:0d:ff:57:8b:a9:85:5e:ca:a6:4b:b0:a7:b2:2d:
         e0:8c:22:cd:fb:ff:79:a4:8c:2b:8d:fe:02:3d:24:de:a9:5d:
         5f:e4:0f:47:d0:db:66:25:3e:87:47:0c:ae:22:c5:50:22:84:
         d7:ed:4a:59:1a:f6:93:a5:93:b0:e0:1b:81:f2:56:c4:c8:10:
         53:e4:d4:76:b1:d1:5b:69:4b:77:b2:e0:4f:c4:84:e7:d4:a0:
         50:ee:3c:fa:44:fc:d0:57:b9:e1:28:53:fd:53:cd:dc:b9:1f:
         7a:40:bd:30:3f:d8:6c:d2:f3:e7:07:9f:1f:22:b5:ea:22:71:
         cb:2a:f0:56:7c:fe:ac:a8:d1:06:0f:14:14:52:4c:fe:64:2b:
         0c:69:2a:b8:0d:50:6e:3e:04:07:bf:7a:20:8b:f8:ee:65:09:
         e1:c7:49:08:32:3d:0d:28:7e:49:1d:b7:4a:ef:02:e7:0d:80:
         17:c8:5c:e0:61:62:cb:ec:b3:60:79:25:da:1a:65:73:9c:38:
         10:a0:26:3a:b0:c8:16:7d:93:31:22:ee:74:0b:88:c0:5c:89:
         41:00:28:a9:47:31:df:7d:49:45:9a:f5:e6:a7:45:1a:d2:8e:
         13:10:df:83:af:9b:0d:ad:7e:7e:9d:35:50:34:04:ce:e9:20:
         d6:9e:db:9d:d4:a8:da:64:b4:d1:2f:59:2e:5e:a2:36:61:d4:
         24:a0:82:33:33:8a:a1:d1:6c:ef:61:68:a3:e5:d2:56:ad:c5:
         fd:5e:62:eb:15:a8:74:12:4c:2f:31:8c:e9:c1:df:10:4b:01:
         ea:f6:54:1b:cd:7f:3b:bd:5c:9f:c1:db:cf:01:ca:f2:ba:60:
         12:21:31:ed:a9:64:b8:b2:49:58:17:6d:5a:d7:cd:8c:6d:be:
         9e:7f:e2:02:58:a7:db:c3:2d:58:f6:74:06:6a:9a:f6:61:f9:
         f6:00:b6:69:d8:3a:8b:31:59:dd:91:e6:7c:27:23:87:dd:03:
         0f:8f:2a:8c:1e:83:01:4e:01:61:0c:52:73:6d:fc:08:a2:b9:
         2a:66:e4:76:4d:31:a0:56:9b:d9:53:8d:a2:b6:8f:02:c8:e6:
         3a:a6:04:d1:48:fb:c3:4a:02:76:fd:2f:d2:bc:13:b6:e8:6d:
         34:24:fa:9d:29:8a:c7:a1:2b:14:f1:96:00:73:b9:13:e9:c0:
         b9:3a:47:56:02:71:80:27:a4:bc:25:b6:e9:bd:e4:e9:98:74:
         16:f1:37:84:81:07:b4:82
-----BEGIN CERTIFICATE-----
MIIGDjCCA/agAwIBAgIQBqdDgNTr/tQ1taP34Wq92DANBgkqhkiG9w0BAQwFADCB
hTELMAkGA1UEBhMCR0IxGzAZBgNVBAgTEkdyZWF0ZXIgTWFuY2hlc3RlcjEQMA4G
A1UEBxMHU2FsZm9yZDEaMBgGA1UEChMRQ09NT0RPIENBIExpbWl0ZWQxKzApBgNV
BAMTIkNPTU9ETyBSU0EgQ2VydGlmaWNhdGlvbiBBdXRob3JpdHkwHhcNMTIwMjEy
MDAwMDAwWhcNMjcwMjExMjM1OTU5WjCBkjELMAkGA1UEBhMCR0IxGzAZBgNVBAgT
EkdyZWF0ZXIgTWFuY2hlc3RlcjEQMA4GA1UEBxMHU2FsZm9yZDEaMBgGA1UEChMR
Q09NT0RPIENBIExpbWl0ZWQxODA2BgNVBAMTL0NPTU9ETyBSU0EgRXh0ZW5kZWQg
VmFsaWRhdGlvbiBTZWN1cmUgU2VydmVyIENBMIIBIjANBgkqhkiG9w0BAQEFAAOC
AQ8AMIIBCgKCAQEAlVbeVLTf1QJJe9FbXKKyHo+cK2JMK40SKPMalaPGEP0p3uGf
CzhAk9HvbpUQ/OGQF3cs7nU+e2PsYZJuTzurgElr3wDqAwB/L3XVKC/sVmePgIOj
vdwDmZOLlJFWW6G4ajo/Br0OksxgnP214J9mMF/b5pTwlWqvyIqvgNnmiDkBfBzA
xSr3e5Wg8narbZtyOTDr0VdVAZ1YEZ18bYSPSeidCfw8/QpKdhQhXBZzQCMZdMO6
WAqmli7eNuWf0MLw4eDBYuPCGEUZUaoXHugjddTI0JYT/8ck0YwLJ66eetw6YWNg
iJctXQUL5Tvrrs46R3N2qPos3cCHF+msMJn4HwIDAQABo4IBaTCCAWUwHwYDVR0j
BBgwFoAUu69+Aj36pvE8hI6t7jiY7NkyMtQwHQYDVR0OBBYEFDna/8ooFIqodBMI
ueQOqdL6fp1pMA4GA1UdDwEB/wQEAwIBBjASBgNVHRMBAf8ECDAGAQH/AgEAMD4G
A1UdIAQ3MDUwMwYEVR0gADArMCkGCCsGAQUFBwIBFh1odHRwczovL3NlY3VyZS5j
b21vZG8uY29tL0NQUzBMBgNVHR8ERTBDMEGgP6A9hjtodHRwOi8vY3JsLmNvbW9k
b2NhLmNvbS9DT01PRE9SU0FDZXJ0aWZpY2F0aW9uQXV0aG9yaXR5LmNybDBxBggr
BgEFBQcBAQRlMGMwOwYIKwYBBQUHMAKGL2h0dHA6Ly9jcnQuY29tb2RvY2EuY29t
L0NPTU9ET1JTQUFkZFRydXN0Q0EuY3J0MCQGCCsGAQUFBzABhhhodHRwOi8vb2Nz
cC5jb21vZG9jYS5jb20wDQYJKoZIhvcNAQEMBQADggIBAERCnUFRK0iIXZebeV4R
AUpSGXtBLMeJPNBy3IX6WK/VJeQT+FhlZ58N/1eLqYVeyqZLsKeyLeCMIs37/3mk
jCuN/gI9JN6pXV/kD0fQ22YlPodHDK4ixVAihNftSlka9pOlk7DgG4HyVsTIEFPk
1Hax0VtpS3ey4E/EhOfUoFDuPPpE/NBXueEoU/1Tzdy5H3pAvTA/2GzS8+cHnx8i
teoiccsq8FZ8/qyo0QYPFBRSTP5kKwxpKrgNUG4+BAe/eiCL+O5lCeHHSQgyPQ0o
fkkdt0rvAucNgBfIXOBhYsvss2B5JdoaZXOcOBCgJjqwyBZ9kzEi7nQLiMBciUEA
KKlHMd99SUWa9eanRRrSjhMQ34Ovmw2tfn6dNVA0BM7pINae253UqNpktNEvWS5e
ojZh1CSggjMziqHRbO9haKPl0latxf1eYusVqHQSTC8xjOnB3xBLAer2VBvNfzu9
XJ/B288ByvK6YBIhMe2pZLiySVgXbVrXzYxtvp5/4gJYp9vDLVj2dAZqmvZh+fYA
tmnYOosxWd2R5nwnI4fdAw+PKowegwFOAWEMUnNt/AiiuSpm5HZNMaBWm9lTjaK2
jwLI5jqmBNFI+8NKAnb9L9K8E7bobTQk+p0pisehKxTxlgBzuRPpwLk6R1YCcYAn
pLwltum95OmYdBbxN4SBB7SC
-----END CERTIFICATE-----

===========================================
Certificate2
===========================================
Certificate:
    Data:
        Version: 3 (0x2)
        Serial Number:
            27:66:ee:56:eb:49:f3:8e:ab:d7:70:a2:fc:84:de:22
    Signature Algorithm: sha384WithRSAEncryption
        Issuer: C=SE, O=AddTrust AB, OU=AddTrust External TTP Network, CN=AddTrust External CA Root
        Validity
            Not Before: May 30 10:48:38 2000 GMT
            Not After : May 30 10:48:38 2020 GMT
        Subject: C=GB, ST=Greater Manchester, L=Salford, O=COMODO CA Limited, CN=COMODO RSA Certification Authority
        Subject Public Key Info:
            Public Key Algorithm: rsaEncryption
                Public-Key: (4096 bit)
                Modulus:
                    00:91:e8:54:92:d2:0a:56:b1:ac:0d:24:dd:c5:cf:
                    44:67:74:99:2b:37:a3:7d:23:70:00:71:bc:53:df:
                    c4:fa:2a:12:8f:4b:7f:10:56:bd:9f:70:72:b7:61:
                    7f:c9:4b:0f:17:a7:3d:e3:b0:04:61:ee:ff:11:97:
                    c7:f4:86:3e:0a:fa:3e:5c:f9:93:e6:34:7a:d9:14:
                    6b:e7:9c:b3:85:a0:82:7a:76:af:71:90:d7:ec:fd:
                    0d:fa:9c:6c:fa:df:b0:82:f4:14:7e:f9:be:c4:a6:
                    2f:4f:7f:99:7f:b5:fc:67:43:72:bd:0c:00:d6:89:
                    eb:6b:2c:d3:ed:8f:98:1c:14:ab:7e:e5:e3:6e:fc:
                    d8:a8:e4:92:24:da:43:6b:62:b8:55:fd:ea:c1:bc:
                    6c:b6:8b:f3:0e:8d:9a:e4:9b:6c:69:99:f8:78:48:
                    30:45:d5:ad:e1:0d:3c:45:60:fc:32:96:51:27:bc:
                    67:c3:ca:2e:b6:6b:ea:46:c7:c7:20:a0:b1:1f:65:
                    de:48:08:ba:a4:4e:a9:f2:83:46:37:84:eb:e8:cc:
                    81:48:43:67:4e:72:2a:9b:5c:bd:4c:1b:28:8a:5c:
                    22:7b:b4:ab:98:d9:ee:e0:51:83:c3:09:46:4e:6d:
                    3e:99:fa:95:17:da:7c:33:57:41:3c:8d:51:ed:0b:
                    b6:5c:af:2c:63:1a:df:57:c8:3f:bc:e9:5d:c4:9b:
                    af:45:99:e2:a3:5a:24:b4:ba:a9:56:3d:cf:6f:aa:
                    ff:49:58:be:f0:a8:ff:f4:b8:ad:e9:37:fb:ba:b8:
                    f4:0b:3a:f9:e8:43:42:1e:89:d8:84:cb:13:f1:d9:
                    bb:e1:89:60:b8:8c:28:56:ac:14:1d:9c:0a:e7:71:
                    eb:cf:0e:dd:3d:a9:96:a1:48:bd:3c:f7:af:b5:0d:
                    22:4c:c0:11:81:ec:56:3b:f6:d3:a2:e2:5b:b7:b2:
                    04:22:52:95:80:93:69:e8:8e:4c:65:f1:91:03:2d:
                    70:74:02:ea:8b:67:15:29:69:52:02:bb:d7:df:50:
                    6a:55:46:bf:a0:a3:28:61:7f:70:d0:c3:a2:aa:2c:
                    21:aa:47:ce:28:9c:06:45:76:bf:82:18:27:b4:d5:
                    ae:b4:cb:50:e6:6b:f4:4c:86:71:30:e9:a6:df:16:
                    86:e0:d8:ff:40:dd:fb:d0:42:88:7f:a3:33:3a:2e:
                    5c:1e:41:11:81:63:ce:18:71:6b:2b:ec:a6:8a:b7:
                    31:5c:3a:6a:47:e0:c3:79:59:d6:20:1a:af:f2:6a:
                    98:aa:72:bc:57:4a:d2:4b:9d:bb:10:fc:b0:4c:41:
                    e5:ed:1d:3d:5e:28:9d:9c:cc:bf:b3:51:da:a7:47:
                    e5:84:53
                Exponent: 65537 (0x10001)
        X509v3 extensions:
            X509v3 Authority Key Identifier: 
                keyid:AD:BD:98:7A:34:B4:26:F7:FA:C4:26:54:EF:03:BD:E0:24:CB:54:1A

            X509v3 Subject Key Identifier: 
                BB:AF:7E:02:3D:FA:A6:F1:3C:84:8E:AD:EE:38:98:EC:D9:32:32:D4
            X509v3 Key Usage: critical
                Digital Signature, Certificate Sign, CRL Sign
            X509v3 Basic Constraints: critical
                CA:TRUE
            X509v3 Certificate Policies: 
                Policy: X509v3 Any Policy

            X509v3 CRL Distribution Points: 

                Full Name:
                  URI:http://crl.usertrust.com/AddTrustExternalCARoot.crl

            Authority Information Access: 
                OCSP - URI:http://ocsp.usertrust.com

    Signature Algorithm: sha384WithRSAEncryption
         64:bf:83:f1:5f:9a:85:d0:cd:b8:a1:29:57:0d:e8:5a:f7:d1:
         e9:3e:f2:76:04:6e:f1:52:70:bb:1e:3c:ff:4d:0d:74:6a:cc:
         81:82:25:d3:c3:a0:2a:5d:4c:f5:ba:8b:a1:6d:c4:54:09:75:
         c7:e3:27:0e:5d:84:79:37:40:13:77:f5:b4:ac:1c:d0:3b:ab:
         17:12:d6:ef:34:18:7e:2b:e9:79:d3:ab:57:45:0c:af:28:fa:
         d0:db:e5:50:95:88:bb:df:85:57:69:7d:92:d8:52:ca:73:81:
         bf:1c:f3:e6:b8:6e:66:11:05:b3:1e:94:2d:7f:91:95:92:59:
         f1:4c:ce:a3:91:71:4c:7c:47:0c:3b:0b:19:f6:a1:b1:6c:86:
         3e:5c:aa:c4:2e:82:cb:f9:07:96:ba:48:4d:90:f2:94:c8:a9:
         73:a2:eb:06:7b:23:9d:de:a2:f3:4d:55:9f:7a:61:45:98:18:
         68:c7:5e:40:6b:23:f5:79:7a:ef:8c:b5:6b:8b:b7:6f:46:f4:
         7b:f1:3d:4b:04:d8:93:80:59:5a:e0:41:24:1d:b2:8f:15:60:
         58:47:db:ef:6e:46:fd:15:f5:d9:5f:9a:b3:db:d8:b8:e4:40:
         b3:cd:97:39:ae:85:bb:1d:8e:bc:dc:87:9b:d1:a6:ef:f1:3b:
         6f:10:38:6f
-----BEGIN CERTIFICATE-----
MIIFdDCCBFygAwIBAgIQJ2buVutJ846r13Ci/ITeIjANBgkqhkiG9w0BAQwFADBv
MQswCQYDVQQGEwJTRTEUMBIGA1UEChMLQWRkVHJ1c3QgQUIxJjAkBgNVBAsTHUFk
ZFRydXN0IEV4dGVybmFsIFRUUCBOZXR3b3JrMSIwIAYDVQQDExlBZGRUcnVzdCBF
eHRlcm5hbCBDQSBSb290MB4XDTAwMDUzMDEwNDgzOFoXDTIwMDUzMDEwNDgzOFow
gYUxCzAJBgNVBAYTAkdCMRswGQYDVQQIExJHcmVhdGVyIE1hbmNoZXN0ZXIxEDAO
BgNVBAcTB1NhbGZvcmQxGjAYBgNVBAoTEUNPTU9ETyBDQSBMaW1pdGVkMSswKQYD
VQQDEyJDT01PRE8gUlNBIENlcnRpZmljYXRpb24gQXV0aG9yaXR5MIICIjANBgkq
hkiG9w0BAQEFAAOCAg8AMIICCgKCAgEAkehUktIKVrGsDSTdxc9EZ3SZKzejfSNw
AHG8U9/E+ioSj0t/EFa9n3Byt2F/yUsPF6c947AEYe7/EZfH9IY+Cvo+XPmT5jR6
2RRr55yzhaCCenavcZDX7P0N+pxs+t+wgvQUfvm+xKYvT3+Zf7X8Z0NyvQwA1onr
ayzT7Y+YHBSrfuXjbvzYqOSSJNpDa2K4Vf3qwbxstovzDo2a5JtsaZn4eEgwRdWt
4Q08RWD8MpZRJ7xnw8outmvqRsfHIKCxH2XeSAi6pE6p8oNGN4Tr6MyBSENnTnIq
m1y9TBsoilwie7SrmNnu4FGDwwlGTm0+mfqVF9p8M1dBPI1R7Qu2XK8sYxrfV8g/
vOldxJuvRZnio1oktLqpVj3Pb6r/SVi+8Kj/9Lit6Tf7urj0Czr56ENCHonYhMsT
8dm74YlguIwoVqwUHZwK53Hrzw7dPamWoUi9PPevtQ0iTMARgexWO/bTouJbt7IE
IlKVgJNp6I5MZfGRAy1wdALqi2cVKWlSArvX31BqVUa/oKMoYX9w0MOiqiwhqkfO
KJwGRXa/ghgntNWutMtQ5mv0TIZxMOmm3xaG4Nj/QN370EKIf6MzOi5cHkERgWPO
GHFrK+ymircxXDpqR+DDeVnWIBqv8mqYqnK8V0rSS527EPywTEHl7R09XiidnMy/
s1Hap0flhFMCAwEAAaOB9DCB8TAfBgNVHSMEGDAWgBStvZh6NLQm9/rEJlTvA73g
JMtUGjAdBgNVHQ4EFgQUu69+Aj36pvE8hI6t7jiY7NkyMtQwDgYDVR0PAQH/BAQD
AgGGMA8GA1UdEwEB/wQFMAMBAf8wEQYDVR0gBAowCDAGBgRVHSAAMEQGA1UdHwQ9
MDswOaA3oDWGM2h0dHA6Ly9jcmwudXNlcnRydXN0LmNvbS9BZGRUcnVzdEV4dGVy
bmFsQ0FSb290LmNybDA1BggrBgEFBQcBAQQpMCcwJQYIKwYBBQUHMAGGGWh0dHA6
Ly9vY3NwLnVzZXJ0cnVzdC5jb20wDQYJKoZIhvcNAQEMBQADggEBAGS/g/FfmoXQ
zbihKVcN6Fr30ek+8nYEbvFScLsePP9NDXRqzIGCJdPDoCpdTPW6i6FtxFQJdcfj
Jw5dhHk3QBN39bSsHNA7qxcS1u80GH4r6XnTq1dFDK8o+tDb5VCViLvfhVdpfZLY
Uspzgb8c8+a4bmYRBbMelC1/kZWSWfFMzqORcUx8Rww7Cxn2obFshj5cqsQugsv5
B5a6SE2Q8pTIqXOi6wZ7I53eovNNVZ96YUWYGGjHXkBrI/V5eu+MtWuLt29G9Hvx
PUsE2JOAWVrgQSQdso8VYFhH2+9uRv0V9dlfmrPb2LjkQLPNlzmuhbsdjrzch5vR
pu/xO28QOG8=
-----END CERTIFICATE-----


