Certificate:
    Data:
        Version: 3 (0x2)
        Serial Number: 24 (0x18)
    Signature Algorithm: sha256WithRSAEncryption
        Issuer: C=US, ST=California, L=Mountain View, O=Test CA, CN=Test Root CA
        Validity
            Not Before: Jan  1 00:00:00 2018 GMT
            Not After : Jan  1 00:00:00 2020 GMT
        Subject: C=US, ST=California, L=Mountain View, O=Test CA, CN=127.0.0.1
        Subject Public Key Info:
            Public Key Algorithm: rsaEncryption
                Public-Key: (2048 bit)
                Modulus:
                    00:b0:4a:2c:10:d6:82:ab:cb:74:51:37:c7:aa:20:
                    6d:2e:d2:7a:56:d3:b4:4b:59:f4:e3:6b:f0:2a:e5:
                    23:78:d4:2b:a8:43:97:b1:dd:63:4f:75:db:b9:8c:
                    8b:6a:9a:98:43:8f:75:0d:01:84:91:58:f2:b3:97:
                    e2:2c:d5:33:4d:c0:58:04:ce:de:1a:c6:df:1d:07:
                    8b:77:e9:ab:4a:a1:9e:e8:a2:19:14:98:5b:c9:5b:
                    0b:df:62:5c:98:24:d0:f6:46:5e:17:85:78:d2:29:
                    6d:1b:33:4d:c4:d2:7d:1b:43:46:e9:2c:52:61:46:
                    2c:5c:0c:d4:50:49:e3:2b:7e:4f:98:96:c6:df:c2:
                    b3:53:47:8c:4f:66:19:0a:e5:5d:39:fd:27:92:b5:
                    4d:c9:f2:13:1b:2a:1f:f3:6a:87:36:a0:03:f5:6e:
                    82:1e:56:5e:76:9d:9b:20:e4:94:6a:a5:98:36:27:
                    47:6b:2a:c1:ed:62:d4:cf:b1:3e:c8:90:a8:ba:fd:
                    e6:07:31:7c:49:12:70:b8:c3:f8:33:1a:53:82:2e:
                    b7:77:b9:50:ab:8b:9b:1e:37:cd:81:93:39:b0:fe:
                    25:12:63:04:d0:d1:c3:4a:2e:d1:aa:0f:e1:14:c1:
                    25:80:16:dd:9d:8e:1a:9f:4d:52:fc:72:cd:53:5c:
                    9b:33
                Exponent: 65537 (0x10001)
        X509v3 extensions:
            X509v3 Basic Constraints: critical
                CA:FALSE
            X509v3 Subject Key Identifier: 
                7D:4D:CC:E0:6D:75:D6:93:25:C7:6A:69:2F:C9:F8:71:8C:ED:02:4E
            X509v3 Authority Key Identifier: 
                keyid:9B:26:0B:8A:98:A9:BB:1D:B9:1F:1C:E3:1A:40:33:ED:8E:17:88:AB

            X509v3 Extended Key Usage: 
                TLS Web Server Authentication, TLS Web Client Authentication
            X509v3 Subject Alternative Name: 
                IP Address:127.0.0.1
    Signature Algorithm: sha256WithRSAEncryption
         38:36:20:77:85:3b:8f:79:1a:41:19:be:e8:14:48:33:42:3e:
         8d:b5:81:80:c8:fc:09:8a:b2:03:71:52:46:b0:f5:28:00:a6:
         41:2e:cf:7e:d8:90:29:c2:47:8d:29:3b:cd:13:c6:11:1f:fc:
         0e:d7:40:5a:02:8d:32:04:e8:62:cd:76:6d:5e:01:f6:ba:87:
         ea:50:f3:07:2d:4f:67:76:c4:e3:d6:d7:25:55:f6:eb:95:bf:
         54:47:eb:cc:58:86:25:49:49:9d:5a:c7:e1:7e:d2:2c:a0:f9:
         1f:8d:77:6b:aa:78:ce:25:4f:49:cb:73:b0:5e:2a:33:36:a7:
         40:76:4c:23:e2:f4:1d:48:e2:18:73:18:79:ea:ad:b6:a0:07:
         84:ec:73:20:62:e8:42:31:63:50:2b:75:35:ea:cb:c4:90:6e:
         1d:3b:32:ed:f2:92:a6:87:73:7a:de:37:54:48:d7:22:c0:e5:
         c6:15:a5:59:96:43:eb:9a:a5:b9:3a:9c:b3:8a:9b:9d:46:2c:
         6b:3a:08:cc:31:10:4e:7b:aa:2e:eb:1a:a7:f4:c9:c3:9a:82:
         73:20:35:f8:b2:d1:36:74:e3:7a:8c:2b:e7:f2:5f:18:f6:37:
         d0:3b:f3:01:2c:2b:07:f2:a2:39:12:fe:6c:42:59:3f:f6:9c:
         2c:aa:ca:0b
-----BEGIN CERTIFICATE-----
MIIDvzCCAqegAwIBAgIBGDANBgkqhkiG9w0BAQsFADBjMQswCQYDVQQGEwJVUzET
MBEGA1UECAwKQ2FsaWZvcm5pYTEWMBQGA1UEBwwNTW91bnRhaW4gVmlldzEQMA4G
A1UECgwHVGVzdCBDQTEVMBMGA1UEAwwMVGVzdCBSb290IENBMB4XDTE4MDEwMTAw
MDAwMFoXDTIwMDEwMTAwMDAwMFowYDELMAkGA1UEBhMCVVMxEzARBgNVBAgMCkNh
bGlmb3JuaWExFjAUBgNVBAcMDU1vdW50YWluIFZpZXcxEDAOBgNVBAoMB1Rlc3Qg
Q0ExEjAQBgNVBAMMCTEyNy4wLjAuMTCCASIwDQYJKoZIhvcNAQEBBQADggEPADCC
AQoCggEBALBKLBDWgqvLdFE3x6ogbS7SelbTtEtZ9ONr8CrlI3jUK6hDl7HdY091
27mMi2qamEOPdQ0BhJFY8rOX4izVM03AWATO3hrG3x0Hi3fpq0qhnuiiGRSYW8lb
C99iXJgk0PZGXheFeNIpbRszTcTSfRtDRuksUmFGLFwM1FBJ4yt+T5iWxt/Cs1NH
jE9mGQrlXTn9J5K1TcnyExsqH/NqhzagA/Vugh5WXnadmyDklGqlmDYnR2sqwe1i
1M+xPsiQqLr95gcxfEkScLjD+DMaU4Iut3e5UKuLmx43zYGTObD+JRJjBNDRw0ou
0aoP4RTBJYAW3Z2OGp9NUvxyzVNcmzMCAwEAAaOBgDB+MAwGA1UdEwEB/wQCMAAw
HQYDVR0OBBYEFH1NzOBtddaTJcdqaS/J+HGM7QJOMB8GA1UdIwQYMBaAFJsmC4qY
qbsduR8c4xpAM+2OF4irMB0GA1UdJQQWMBQGCCsGAQUFBwMBBggrBgEFBQcDAjAP
BgNVHREECDAGhwR/AAABMA0GCSqGSIb3DQEBCwUAA4IBAQA4NiB3hTuPeRpBGb7o
FEgzQj6NtYGAyPwJirIDcVJGsPUoAKZBLs9+2JApwkeNKTvNE8YRH/wO10BaAo0y
BOhizXZtXgH2uofqUPMHLU9ndsTj1tclVfbrlb9UR+vMWIYlSUmdWsfhftIsoPkf
jXdrqnjOJU9Jy3OwXiozNqdAdkwj4vQdSOIYcxh56q22oAeE7HMgYuhCMWNQK3U1
6svEkG4dOzLt8pKmh3N63jdUSNciwOXGFaVZlkPrmqW5OpyzipudRixrOgjMMRBO
e6ou6xqn9MnDmoJzIDX4stE2dON6jCvn8l8Y9jfQO/MBLCsH8qI5Ev5sQlk/9pws
qsoL
-----END CERTIFICATE-----
