Certificate:
    Data:
        Version: 3 (0x2)
        Serial Number: 3 (0x3)
    Signature Algorithm: sha256WithRSAEncryption
        Issuer: C=US, ST=California, L=Mountain View, O=Test CA, CN=Test Root CA
        Validity
            Not Before: Jun  5 17:10:46 2017 GMT
            Not After : Jun  3 17:10:46 2027 GMT
        Subject: C=US, ST=California, L=Mountain View, O=Test CA, CN=127.0.0.1
        Subject Public Key Info:
            Public Key Algorithm: 1.3.101.112
            Unable to load Public Key
139954530571936:error:0609E09C:digital envelope routines:PKEY_SET_TYPE:unsupported algorithm:p_lib.c:239:
139954530571936:error:0B07706F:x509 certificate routines:X509_PUBKEY_get:unsupported algorithm:x_pubkey.c:155:
        X509v3 extensions:
            X509v3 Basic Constraints: critical
                CA:FALSE
            X509v3 Subject Key Identifier: 
                E0:DC:E0:2F:07:88:74:3A:9F:D3:30:A3:71:8A:F9:D6:A5:E5:A6:53
            X509v3 Authority Key Identifier: 
                keyid:9B:26:0B:8A:98:A9:BB:1D:B9:1F:1C:E3:1A:40:33:ED:8E:17:88:AB

            X509v3 Extended Key Usage: 
                TLS Web Server Authentication, TLS Web Client Authentication
            X509v3 Subject Alternative Name: 
                IP Address:127.0.0.1
    Signature Algorithm: sha256WithRSAEncryption
         50:5a:a5:74:99:c5:15:65:8e:a8:2b:b5:64:14:f8:93:9a:eb:
         9f:42:af:3c:96:b9:20:f2:29:b0:49:7e:b3:6d:0a:c8:bb:8d:
         f6:08:98:d0:bb:11:68:12:c2:cb:46:81:8f:9d:52:57:39:6d:
         3e:21:0e:10:cb:94:3c:db:ca:8d:3b:86:e7:11:39:69:36:24:
         f3:b7:a9:41:0f:50:23:4b:03:bc:eb:d5:2d:27:a3:e8:7f:82:
         1f:7b:e4:66:14:bf:5e:17:9e:de:c5:22:1c:89:45:f9:ee:f4:
         60:c7:a3:d9:fd:26:34:12:6b:63:fc:86:75:ec:bd:d5:68:9c:
         b0:66:e4:f2:f5:9b:af:30:14:53:4a:a4:67:b2:39:84:ac:26:
         b6:09:e1:8d:c1:57:45:41:94:32:5c:34:ca:51:10:e5:b5:4a:
         a8:59:4b:1c:65:4f:c8:43:b3:22:02:d0:25:42:78:27:d8:1c:
         b2:f8:bb:a6:5d:1a:22:19:79:27:f3:d0:42:fd:8f:33:c5:c4:
         9e:11:f8:b7:7a:4d:a2:56:5a:e4:02:77:09:dd:6a:26:d8:04:
         c1:2e:69:32:6c:1e:63:54:26:e0:45:20:3b:c5:1f:10:e1:fd:
         15:02:f2:5a:57:50:a8:ba:d9:be:b1:f3:32:2d:63:85:53:70:
         5e:6c:51:a3
-----BEGIN CERTIFICATE-----
MIICxTCCAa2gAwIBAgIBAzANBgkqhkiG9w0BAQsFADBjMQswCQYDVQQGEwJVUzET
MBEGA1UECAwKQ2FsaWZvcm5pYTEWMBQGA1UEBwwNTW91bnRhaW4gVmlldzEQMA4G
A1UECgwHVGVzdCBDQTEVMBMGA1UEAwwMVGVzdCBSb290IENBMB4XDTE3MDYwNTE3
MTA0NloXDTI3MDYwMzE3MTA0NlowYDELMAkGA1UEBhMCVVMxEzARBgNVBAgMCkNh
bGlmb3JuaWExFjAUBgNVBAcMDU1vdW50YWluIFZpZXcxEDAOBgNVBAoMB1Rlc3Qg
Q0ExEjAQBgNVBAMMCTEyNy4wLjAuMTAqMAUGAytlcAMhABm/RAlphM3+hUG6wWfc
O5bIUIaqMLa2ywxcOK1wMWbho4GAMH4wDAYDVR0TAQH/BAIwADAdBgNVHQ4EFgQU
4NzgLweIdDqf0zCjcYr51qXlplMwHwYDVR0jBBgwFoAUmyYLipipux25HxzjGkAz
7Y4XiKswHQYDVR0lBBYwFAYIKwYBBQUHAwEGCCsGAQUFBwMCMA8GA1UdEQQIMAaH
BH8AAAEwDQYJKoZIhvcNAQELBQADggEBAFBapXSZxRVljqgrtWQU+JOa659CrzyW
uSDyKbBJfrNtCsi7jfYImNC7EWgSwstGgY+dUlc5bT4hDhDLlDzbyo07hucROWk2
JPO3qUEPUCNLA7zr1S0no+h/gh975GYUv14Xnt7FIhyJRfnu9GDHo9n9JjQSa2P8
hnXsvdVonLBm5PL1m68wFFNKpGeyOYSsJrYJ4Y3BV0VBlDJcNMpREOW1SqhZSxxl
T8hDsyIC0CVCeCfYHLL4u6ZdGiIZeSfz0EL9jzPFxJ4R+Ld6TaJWWuQCdwndaibY
BMEuaTJsHmNUJuBFIDvFHxDh/RUC8lpXUKi62b6x8zItY4VTcF5sUaM=
-----END CERTIFICATE-----
