Certificate:
    Data:
        Version: 3 (0x2)
        Serial Number: 3 (0x3)
    Signature Algorithm: rsassaPss
         Hash Algorithm: sha256
         Mask Algorithm: mgf1 with sha256
         Salt Length: 0x20
         Trailer Field: 0xBC (default)
        Issuer: C=US, ST=California, L=Mountain View, O=Test CA, CN=Test Root CA
        Validity
            Not Before: Jun  5 17:10:46 2017 GMT
            Not After : Jun  3 17:10:46 2027 GMT
        Subject: C=US, ST=California, L=Mountain View, O=Test CA, CN=127.0.0.1
        Subject Public Key Info:
            Public Key Algorithm: rsaEncryption
                Public-Key: (2048 bit)
                Modulus:
                    00:b4:bf:d2:97:33:e5:13:5b:77:65:bd:73:1a:75:
                    28:9b:47:59:e6:b7:30:e8:46:33:6d:58:5b:da:1f:
                    0a:ff:e4:e4:2d:f2:1d:f8:89:e8:64:2e:f6:c3:cd:
                    d7:a3:8e:d7:f7:cd:e7:d8:0e:10:c3:e7:56:d2:fc:
                    e5:e6:d3:4e:e2:ff:82:4d:18:63:87:b0:a3:de:da:
                    ef:0a:37:7b:ac:b5:b7:43:ce:f2:07:39:df:14:e9:
                    c3:a4:41:3e:7e:68:47:34:9b:7b:61:c4:18:e6:13:
                    ce:b3:b4:a6:e0:ba:03:ee:e4:eb:e7:aa:f4:6d:be:
                    97:5b:aa:06:97:50:01:d0:78:b8:d6:92:b0:e4:e2:
                    b9:43:88:b5:ae:14:64:7d:52:70:d4:05:1c:09:25:
                    d5:e2:4f:c9:a8:82:db:41:31:c3:be:44:6f:0b:d4:
                    fd:bf:c1:ee:d9:62:bf:3b:8f:b5:00:c8:d1:df:5d:
                    4a:13:ad:71:e4:4b:5f:d1:d9:72:4c:83:d8:93:40:
                    bf:6c:cd:2f:66:0e:04:d6:b9:43:28:24:c9:25:fd:
                    59:70:fe:3d:f2:a9:0a:4e:c2:9b:c4:de:9e:57:5e:
                    5d:16:25:e6:78:b6:44:49:29:9d:f6:bf:74:fb:85:
                    d6:0d:f1:65:58:f2:2b:d6:8f:10:49:c8:00:2d:88:
                    e2:2d
                Exponent: 65537 (0x10001)
        X509v3 extensions:
            X509v3 Basic Constraints: critical
                CA:FALSE
            X509v3 Subject Key Identifier: 
                E0:DC:E0:2F:07:88:74:3A:9F:D3:30:A3:71:8A:F9:D6:A5:E5:A6:53
            X509v3 Authority Key Identifier: 
                keyid:9B:26:0B:8A:98:A9:BB:1D:B9:1F:1C:E3:1A:40:33:ED:8E:17:88:AB

            X509v3 Extended Key Usage: 
                TLS Web Server Authentication, TLS Web Client Authentication
            X509v3 Subject Alternative Name: 
                IP Address:127.0.0.1
    Signature Algorithm: rsassaPss
         Hash Algorithm: sha256
         Mask Algorithm: mgf1 with sha256
         Salt Length: 0x20
         Trailer Field: 0xBC (default)

         67:18:c0:ed:e6:c7:15:be:2a:99:7b:fa:d6:4e:7c:02:c9:86:
         57:b8:f3:9c:aa:40:c2:d3:16:4f:9e:7e:37:f9:6d:69:ba:68:
         62:19:1c:c7:a7:bc:d0:c1:ab:d9:10:7f:d5:04:1a:b1:51:6c:
         42:c9:c5:f3:8a:6c:db:e9:a2:4a:87:e2:f9:f7:18:50:d2:91:
         21:85:bc:6f:eb:4a:0f:4a:d2:06:13:f1:26:70:0f:a3:7d:92:
         8b:7a:5f:7f:34:73:85:12:38:ed:1d:18:d9:09:48:26:59:19:
         c5:d1:47:4e:cc:14:82:7f:76:a0:c0:62:62:13:d2:7d:20:d2:
         4f:47:52:fe:66:7b:db:43:a0:85:e3:01:bb:61:83:bc:49:b7:
         8f:d3:ec:45:62:69:bf:8b:76:23:1e:48:c5:37:4d:f7:a0:29:
         43:a0:77:e8:2e:74:f9:13:dd:db:1f:95:c4:dd:ef:7c:5c:b0:
         0e:b0:5b:3c:29:6b:37:b8:d7:3d:50:97:6b:56:b9:e7:58:c2:
         7c:15:30:cc:bc:a7:6f:ab:bd:7a:9f:85:17:d5:d8:39:e6:b6:
         c5:c9:bf:5d:45:3d:f4:05:78:dc:0f:c6:7c:1f:18:f4:b7:dc:
         3b:df:66:21:65:9c:57:68:c2:5d:8c:85:1f:70:c2:6c:42:d2:
         a5:9e:a9:e1
-----BEGIN CERTIFICATE-----
MIIEJzCCAtugAwIBAgIBAzBBBgkqhkiG9w0BAQowNKAPMA0GCWCGSAFlAwQCAQUA
oRwwGgYJKoZIhvcNAQEIMA0GCWCGSAFlAwQCAQUAogMCASAwYzELMAkGA1UEBhMC
VVMxEzARBgNVBAgMCkNhbGlmb3JuaWExFjAUBgNVBAcMDU1vdW50YWluIFZpZXcx
EDAOBgNVBAoMB1Rlc3QgQ0ExFTATBgNVBAMMDFRlc3QgUm9vdCBDQTAeFw0xNzA2
MDUxNzEwNDZaFw0yNzA2MDMxNzEwNDZaMGAxCzAJBgNVBAYTAlVTMRMwEQYDVQQI
DApDYWxpZm9ybmlhMRYwFAYDVQQHDA1Nb3VudGFpbiBWaWV3MRAwDgYDVQQKDAdU
ZXN0IENBMRIwEAYDVQQDDAkxMjcuMC4wLjEwggEiMA0GCSqGSIb3DQEBAQUAA4IB
DwAwggEKAoIBAQC0v9KXM+UTW3dlvXMadSibR1nmtzDoRjNtWFvaHwr/5OQt8h34
iehkLvbDzdejjtf3zefYDhDD51bS/OXm007i/4JNGGOHsKPe2u8KN3ustbdDzvIH
Od8U6cOkQT5+aEc0m3thxBjmE86ztKbgugPu5OvnqvRtvpdbqgaXUAHQeLjWkrDk
4rlDiLWuFGR9UnDUBRwJJdXiT8mogttBMcO+RG8L1P2/we7ZYr87j7UAyNHfXUoT
rXHkS1/R2XJMg9iTQL9szS9mDgTWuUMoJMkl/Vlw/j3yqQpOwpvE3p5XXl0WJeZ4
tkRJKZ32v3T7hdYN8WVY8ivWjxBJyAAtiOItAgMBAAGjgYAwfjAMBgNVHRMBAf8E
AjAAMB0GA1UdDgQWBBTg3OAvB4h0Op/TMKNxivnWpeWmUzAfBgNVHSMEGDAWgBSb
JguKmKm7HbkfHOMaQDPtjheIqzAdBgNVHSUEFjAUBggrBgEFBQcDAQYIKwYBBQUH
AwIwDwYDVR0RBAgwBocEfwAAATBBBgkqhkiG9w0BAQowNKAPMA0GCWCGSAFlAwQC
AQUAoRwwGgYJKoZIhvcNAQEIMA0GCWCGSAFlAwQCAQUAogMCASADggEBAGcYwO3m
xxW+Kpl7+tZOfALJhle485yqQMLTFk+efjf5bWm6aGIZHMenvNDBq9kQf9UEGrFR
bELJxfOKbNvpokqH4vn3GFDSkSGFvG/rSg9K0gYT8SZwD6N9kot6X380c4USOO0d
GNkJSCZZGcXRR07MFIJ/dqDAYmIT0n0g0k9HUv5me9tDoIXjAbthg7xJt4/T7EVi
ab+LdiMeSMU3TfegKUOgd+gudPkT3dsflcTd73xcsA6wWzwpaze41z1Ql2tWuedY
wnwVMMy8p2+rvXqfhRfV2DnmtsXJv11FPfQFeNwPxnwfGPS33DvfZiFlnFdowl2M
hR9wwmxC0qWeqeE=
-----END CERTIFICATE-----
