Certificate:
    Data:
        Version: 3 (0x2)
        Serial Number:
            cc:e0:45:64:00:00:00:00:00:92
    Signature Algorithm: GOST R 34.11-94 with GOST R 34.10-2001
        Issuer: emailAddress=dit@minsvyaz.ru, C=RU, ST=77 \xD0\xB3. \xD0\x9C\xD0\xBE\xD1\x81\xD0\xBA\xD0\xB2\xD0\xB0, L=\xD0\x9C\xD0\xBE\xD1\x81\xD0\xBA\xD0\xB2\xD0\xB0/street=125375 \xD0\xB3. \xD0\x9C\xD0\xBE\xD1\x81\xD0\xBA\xD0\xB2\xD0\xB0, \xD1\x83\xD0\xBB. \xD0\xA2\xD0\xB2\xD0\xB5\xD1\x80\xD1\x81\xD0\xBA\xD0\xB0\xD1\x8F, \xD0\xB4. 7, O=\xD0\x9C\xD0\xB8\xD0\xBD\xD0\xBA\xD0\xBE\xD0\xBC\xD1\x81\xD0\xB2\xD1\x8F\xD0\xB7\xD1\x8C \xD0\xA0\xD0\xBE\xD1\x81\xD1\x81\xD0\xB8\xD0\xB8/1.2.643.100.1=1047702026701/1.2.643.3.131.1.1=007710474375, CN=\xD0\x93\xD0\xBE\xD0\xBB\xD0\xBE\xD0\xB2\xD0\xBD\xD0\xBE\xD0\xB9 \xD1\x83\xD0\xB4\xD0\xBE\xD1\x81\xD1\x82\xD0\xBE\xD0\xB2\xD0\xB5\xD1\x80\xD1\x8F\xD1\x8E\xD1\x89\xD0\xB8\xD0\xB9 \xD1\x86\xD0\xB5\xD0\xBD\xD1\x82\xD1\x80
        Validity
            Not Before: Dec  7 10:51:11 2016 GMT
            Not After : Dec  7 10:51:11 2026 GMT
        Subject: 1.2.643.3.131.1.1=007710474375/1.2.643.100.1=1047702026701/emailAddress=dit@minsvyaz.ru/street=125375 \xD0\xB3. \xD0\x9C\xD0\xBE\xD1\x81\xD0\xBA\xD0\xB2\xD0\xB0 \xD1\x83\xD0\xBB. \xD0\xA2\xD0\xB2\xD0\xB5\xD1\x80\xD1\x81\xD0\xBA\xD0\xB0\xD1\x8F \xD0\xB4.7, O=\xD0\x9C\xD0\xB8\xD0\xBD\xD0\xBA\xD0\xBE\xD0\xBC\xD1\x81\xD0\xB2\xD1\x8F\xD0\xB7\xD1\x8C \xD0\xA0\xD0\xBE\xD1\x81\xD1\x81\xD0\xB8\xD0\xB8, L=\xD0\x9C\xD0\xBE\xD1\x81\xD0\xBA\xD0\xB2\xD0\xB0, ST=77 \xD0\xB3. \xD0\x9C\xD0\xBE\xD1\x81\xD0\xBA\xD0\xB2\xD0\xB0, C=RU, CN=\xD0\xA3\xD0\xA6 1 \xD0\x98\xD0\xA1 \xD0\x93\xD0\xA3\xD0\xA6
        Subject Public Key Info:
            Public Key Algorithm: GOST R 34.10-2001
            Unable to load Public Key
140401324676768:error:0609E09C:digital envelope routines:PKEY_SET_TYPE:unsupported algorithm:p_lib.c:239:
140401324676768:error:0B07706F:x509 certificate routines:X509_PUBKEY_get:unsupported algorithm:x_pubkey.c:155:
        X509v3 extensions:
            X509v3 Key Usage: 
                Digital Signature, Certificate Sign, CRL Sign
            X509v3 Subject Key Identifier: 
                9F:C2:73:58:A8:74:81:6A:60:6D:33:F4:47:A4:68:A6:76:39:67:9B
            1.3.6.1.4.1.311.20.2: 
                ..SubCA
            X509v3 Basic Constraints: critical
                CA:TRUE
            X509v3 Certificate Policies: 
                Policy: X509v3 Any Policy
                Policy: 1.2.643.100.113.1
                Policy: 1.2.643.100.113.2
                Policy: 1.2.643.100.113.3

            1.2.643.100.111: 
                .+".................. CSP" (............ 3.9)
            1.3.6.1.4.1.311.21.1: 
                .....
            X509v3 Authority Key Identifier: 
                keyid:8B:98:3B:89:18:51:E8:EF:9C:02:78:B8:EA:C8:D4:20:B2:55:C9:5D
                DirName:/emailAddress=dit@minsvyaz.ru/C=RU/ST=77 \xD0\xB3. \xD0\x9C\xD0\xBE\xD1\x81\xD0\xBA\xD0\xB2\xD0\xB0/L=\xD0\x9C\xD0\xBE\xD1\x81\xD0\xBA\xD0\xB2\xD0\xB0
                serial:34:68:1E:40:CB:41:EF:33:A9:A0:B7:C8:76:92:9A:29

            X509v3 CRL Distribution Points: 

                Full Name:
                  URI:http://rostelecom.ru/cdp/guc.crl

                Full Name:
                  URI:http://reestr-pki.ru/cdp/guc.crl

            1.2.643.100.112: 
                0...#........ .................... HSM... ...... .................. .......6.................... ... 149/3/2/2-999 .... 05.07.2012.8.................... ... 149/7/1/4/2-603 .... 06.07.2012
    Signature Algorithm: GOST R 34.11-94 with GOST R 34.10-2001
         9d:61:8d:dd:c0:d4:ce:04:c8:30:d3:13:10:64:dd:58:ee:8a:
         18:8c:bf:3e:e7:57:07:86:1b:8f:a9:06:ba:0c:86:d0:96:c5:
         c5:ea:ba:76:9d:d1:7c:c4:92:b3:9d:c0:13:7d:ea:1f:85:d4:
         ba:a4:be:e8:5a:bf:bc:51:d9:a4
-----BEGIN CERTIFICATE-----
MIIG8DCCBp+gAwIBAgILAMzgRWQAAAAAAJIwCAYGKoUDAgIDMIIBSjEeMBwGCSqG
SIb3DQEJARYPZGl0QG1pbnN2eWF6LnJ1MQswCQYDVQQGEwJSVTEcMBoGA1UECAwT
Nzcg0LMuINCc0L7RgdC60LLQsDEVMBMGA1UEBwwM0JzQvtGB0LrQstCwMT8wPQYD
VQQJDDYxMjUzNzUg0LMuINCc0L7RgdC60LLQsCwg0YPQuy4g0KLQstC10YDRgdC6
0LDRjywg0LQuIDcxLDAqBgNVBAoMI9Cc0LjQvdC60L7QvNGB0LLRj9C30Ywg0KDQ
vtGB0YHQuNC4MRgwFgYFKoUDZAESDTEwNDc3MDIwMjY3MDExGjAYBggqhQMDgQMB
ARIMMDA3NzEwNDc0Mzc1MUEwPwYDVQQDDDjQk9C+0LvQvtCy0L3QvtC5INGD0LTQ
vtGB0YLQvtCy0LXRgNGP0Y7RidC40Lkg0YbQtdC90YLRgDAeFw0xNjEyMDcxMDUx
MTFaFw0yNjEyMDcxMDUxMTFaMIIBITEaMBgGCCqFAwOBAwEBEgwwMDc3MTA0NzQz
NzUxGDAWBgUqhQNkARINMTA0NzcwMjAyNjcwMTEeMBwGCSqGSIb3DQEJARYPZGl0
QG1pbnN2eWF6LnJ1MTwwOgYDVQQJDDMxMjUzNzUg0LMuINCc0L7RgdC60LLQsCDR
g9C7LiDQotCy0LXRgNGB0LrQsNGPINC0LjcxLDAqBgNVBAoMI9Cc0LjQvdC60L7Q
vNGB0LLRj9C30Ywg0KDQvtGB0YHQuNC4MRUwEwYDVQQHDAzQnNC+0YHQutCy0LAx
HDAaBgNVBAgMEzc3INCzLiDQnNC+0YHQutCy0LAxCzAJBgNVBAYTAlJVMRswGQYD
VQQDDBLQo9CmIDEg0JjQoSDQk9Cj0KYwYzAcBgYqhQMCAhMwEgYHKoUDAgIjAQYH
KoUDAgIeAQNDAARA0o8rJm8qWVz/UI9xrRFvMBRZI3STCxA839I2vjNiSMNXUtjW
Jatz6qfZpJPJzXHxYShC6Ng1JgilG8h+mv7LhaOCA4cwggODMAsGA1UdDwQEAwIB
hjAdBgNVHQ4EFgQUn8JzWKh0gWpgbTP0R6RopnY5Z5swFAYJKwYBBAGCNxQCBAcM
BVN1YkNBMA8GA1UdEwEB/wQFMAMBAf8wLwYDVR0gBCgwJjAGBgRVHSAAMAgGBiqF
A2RxATAIBgYqhQNkcQIwCAYGKoUDZHEDMDYGBSqFA2RvBC0MKyLQmtGA0LjQv9GC
0L7Qn9GA0L4gQ1NQIiAo0LLQtdGA0YHQuNGPIDMuOSkwEgYJKwYBBAGCNxUBBAUC
AwQABDCCAYsGA1UdIwSCAYIwggF+gBSLmDuJGFHo75wCeLjqyNQgslXJXaGCAVKk
ggFOMIIBSjEeMBwGCSqGSIb3DQEJARYPZGl0QG1pbnN2eWF6LnJ1MQswCQYDVQQG
EwJSVTEcMBoGA1UECAwTNzcg0LMuINCc0L7RgdC60LLQsDEVMBMGA1UEBwwM0JzQ
vtGB0LrQstCwMT8wPQYDVQQJDDYxMjUzNzUg0LMuINCc0L7RgdC60LLQsCwg0YPQ
uy4g0KLQstC10YDRgdC60LDRjywg0LQuIDcxLDAqBgNVBAoMI9Cc0LjQvdC60L7Q
vNGB0LLRj9C30Ywg0KDQvtGB0YHQuNC4MRgwFgYFKoUDZAESDTEwNDc3MDIwMjY3
MDExGjAYBggqhQMDgQMBARIMMDA3NzEwNDc0Mzc1MUEwPwYDVQQDDDjQk9C+0LvQ
vtCy0L3QvtC5INGD0LTQvtGB0YLQvtCy0LXRgNGP0Y7RidC40Lkg0YbQtdC90YLR
gIIQNGgeQMtB7zOpoLfIdpKaKTBZBgNVHR8EUjBQMCagJKAihiBodHRwOi8vcm9z
dGVsZWNvbS5ydS9jZHAvZ3VjLmNybDAmoCSgIoYgaHR0cDovL3JlZXN0ci1wa2ku
cnUvY2RwL2d1Yy5jcmwwgcYGBSqFA2RwBIG8MIG5DCPQn9CQ0JrQnCDCq9Ca0YDQ
uNC/0YLQvtCf0YDQviBIU03Cuwwg0J/QkNCaIMKr0JPQvtC70L7QstC90L7QuSDQ
o9CmwrsMNtCX0LDQutC70Y7Rh9C10L3QuNC1IOKEliAxNDkvMy8yLzItOTk5INC+
0YIgMDUuMDcuMjAxMgw40JfQsNC60LvRjtGH0LXQvdC40LUg4oSWIDE0OS83LzEv
NC8yLTYwMyDQvtGCIDA2LjA3LjIwMTIwCAYGKoUDAgIDA0EAnWGN3cDUzgTIMNMT
EGTdWO6KGIy/PudXB4Ybj6kGugyG0JbFxeq6dp3RfMSSs53AE33qH4XUuqS+6Fq/
vFHZpA==
-----END CERTIFICATE-----
